
target/x86_64-unknown-linux-gnu/debug/slice:     file format elf64-x86-64


Disassembly of section .init:

0000000000005000 <_init>:
    5000:	f3 0f 1e fa          	endbr64 
    5004:	48 83 ec 08          	sub    $0x8,%rsp
    5008:	48 8b 05 21 1d 05 00 	mov    0x51d21(%rip),%rax        # 56d30 <__gmon_start__>
    500f:	48 85 c0             	test   %rax,%rax
    5012:	74 02                	je     5016 <_init+0x16>
    5014:	ff d0                	callq  *%rax
    5016:	48 83 c4 08          	add    $0x8,%rsp
    501a:	c3                   	retq   

Disassembly of section .plt:

0000000000005020 <.plt>:
    5020:	ff 35 8a 19 05 00    	pushq  0x5198a(%rip)        # 569b0 <_GLOBAL_OFFSET_TABLE_+0x8>
    5026:	ff 25 8c 19 05 00    	jmpq   *0x5198c(%rip)        # 569b8 <_GLOBAL_OFFSET_TABLE_+0x10>
    502c:	0f 1f 40 00          	nopl   0x0(%rax)

0000000000005030 <__xstat64@plt>:
    5030:	ff 25 8a 19 05 00    	jmpq   *0x5198a(%rip)        # 569c0 <__xstat64@GLIBC_2.2.5>
    5036:	68 00 00 00 00       	pushq  $0x0
    503b:	e9 e0 ff ff ff       	jmpq   5020 <.plt>

0000000000005040 <__stack_chk_fail@plt>:
    5040:	ff 25 82 19 05 00    	jmpq   *0x51982(%rip)        # 569c8 <__stack_chk_fail@GLIBC_2.4>
    5046:	68 01 00 00 00       	pushq  $0x1
    504b:	e9 d0 ff ff ff       	jmpq   5020 <.plt>

0000000000005050 <printf@plt>:
    5050:	ff 25 7a 19 05 00    	jmpq   *0x5197a(%rip)        # 569d0 <printf@GLIBC_2.2.5>
    5056:	68 02 00 00 00       	pushq  $0x2
    505b:	e9 c0 ff ff ff       	jmpq   5020 <.plt>

0000000000005060 <__tls_get_addr@plt>:
    5060:	ff 25 72 19 05 00    	jmpq   *0x51972(%rip)        # 569d8 <__tls_get_addr@GLIBC_2.3>
    5066:	68 03 00 00 00       	pushq  $0x3
    506b:	e9 b0 ff ff ff       	jmpq   5020 <.plt>

0000000000005070 <__fxstat64@plt>:
    5070:	ff 25 6a 19 05 00    	jmpq   *0x5196a(%rip)        # 569e0 <__fxstat64@GLIBC_2.2.5>
    5076:	68 04 00 00 00       	pushq  $0x4
    507b:	e9 a0 ff ff ff       	jmpq   5020 <.plt>

0000000000005080 <_Unwind_Resume@plt>:
    5080:	ff 25 62 19 05 00    	jmpq   *0x51962(%rip)        # 569e8 <_Unwind_Resume@GCC_3.0>
    5086:	68 05 00 00 00       	pushq  $0x5
    508b:	e9 90 ff ff ff       	jmpq   5020 <.plt>

Disassembly of section .plt.got:

0000000000005090 <malloc@plt>:
    5090:	ff 25 1a 1d 05 00    	jmpq   *0x51d1a(%rip)        # 56db0 <malloc@GLIBC_2.2.5>
    5096:	66 90                	xchg   %ax,%ax

0000000000005098 <__cxa_finalize@plt>:
    5098:	ff 25 32 1f 05 00    	jmpq   *0x51f32(%rip)        # 56fd0 <__cxa_finalize@GLIBC_2.2.5>
    509e:	66 90                	xchg   %ax,%ax

Disassembly of section .text:

00000000000050a0 <_ZN4core3str7pattern13simd_contains28_$u7b$$u7b$closure$u7d$$u7d$17hab766c13f49e7683E>:
    50a0:	31 c0                	xor    %eax,%eax
    50a2:	66 85 d2             	test   %dx,%dx
    50a5:	0f 84 19 01 00 00    	je     51c4 <_ZN4core3str7pattern13simd_contains28_$u7b$$u7b$closure$u7d$$u7d$17hab766c13f49e7683E+0x124>
    50ab:	84 c9                	test   %cl,%cl
    50ad:	0f 85 11 01 00 00    	jne    51c4 <_ZN4core3str7pattern13simd_contains28_$u7b$$u7b$closure$u7d$$u7d$17hab766c13f49e7683E+0x124>
    50b3:	53                   	push   %rbx
    50b4:	48 ff c6             	inc    %rsi
    50b7:	4c 8b 07             	mov    (%rdi),%r8
    50ba:	4c 8b 4f 10          	mov    0x10(%rdi),%r9
    50be:	48 8b 7f 18          	mov    0x18(%rdi),%rdi
    50c2:	48 89 f8             	mov    %rdi,%rax
    50c5:	48 83 e8 04          	sub    $0x4,%rax
    50c9:	0f 82 ad 00 00 00    	jb     517c <_ZN4core3str7pattern13simd_contains28_$u7b$$u7b$closure$u7d$$u7d$17hab766c13f49e7683E+0xdc>
    50cf:	48 85 c0             	test   %rax,%rax
    50d2:	7f 4c                	jg     5120 <_ZN4core3str7pattern13simd_contains28_$u7b$$u7b$closure$u7d$$u7d$17hab766c13f49e7683E+0x80>
    50d4:	49 01 c0             	add    %rax,%r8
    50d7:	41 8b 3c 01          	mov    (%r9,%rax,1),%edi
    50db:	0f 1f 44 00 00       	nopl   0x0(%rax,%rax,1)
    50e0:	f3 0f bc ca          	tzcnt  %edx,%ecx
    50e4:	48 8d 04 0e          	lea    (%rsi,%rcx,1),%rax
    50e8:	41 39 3c 00          	cmp    %edi,(%r8,%rax,1)
    50ec:	0f 94 c0             	sete   %al
    50ef:	0f 84 ce 00 00 00    	je     51c3 <_ZN4core3str7pattern13simd_contains28_$u7b$$u7b$closure$u7d$$u7d$17hab766c13f49e7683E+0x123>
    50f5:	66 41 b9 fe ff       	mov    $0xfffe,%r9w
    50fa:	66 41 d3 c1          	rol    %cl,%r9w
    50fe:	66 44 21 ca          	and    %r9w,%dx
    5102:	75 dc                	jne    50e0 <_ZN4core3str7pattern13simd_contains28_$u7b$$u7b$closure$u7d$$u7d$17hab766c13f49e7683E+0x40>
    5104:	e9 ba 00 00 00       	jmpq   51c3 <_ZN4core3str7pattern13simd_contains28_$u7b$$u7b$closure$u7d$$u7d$17hab766c13f49e7683E+0x123>
    5109:	0f 1f 80 00 00 00 00 	nopl   0x0(%rax)
    5110:	66 bf fe ff          	mov    $0xfffe,%di
    5114:	66 d3 c7             	rol    %cl,%di
    5117:	66 21 fa             	and    %di,%dx
    511a:	0f 84 a1 00 00 00    	je     51c1 <_ZN4core3str7pattern13simd_contains28_$u7b$$u7b$closure$u7d$$u7d$17hab766c13f49e7683E+0x121>
    5120:	f3 0f bc ca          	tzcnt  %edx,%ecx
    5124:	48 89 cf             	mov    %rcx,%rdi
    5127:	48 01 f7             	add    %rsi,%rdi
    512a:	4c 01 c7             	add    %r8,%rdi
    512d:	4c 8d 14 07          	lea    (%rdi,%rax,1),%r10
    5131:	4d 89 cb             	mov    %r9,%r11
    5134:	66 66 66 2e 0f 1f 84 	data16 data16 nopw %cs:0x0(%rax,%rax,1)
    513b:	00 00 00 00 00 
    5140:	8b 1f                	mov    (%rdi),%ebx
    5142:	41 3b 1b             	cmp    (%r11),%ebx
    5145:	75 c9                	jne    5110 <_ZN4core3str7pattern13simd_contains28_$u7b$$u7b$closure$u7d$$u7d$17hab766c13f49e7683E+0x70>
    5147:	48 83 c7 04          	add    $0x4,%rdi
    514b:	49 83 c3 04          	add    $0x4,%r11
    514f:	4c 39 d7             	cmp    %r10,%rdi
    5152:	72 ec                	jb     5140 <_ZN4core3str7pattern13simd_contains28_$u7b$$u7b$closure$u7d$$u7d$17hab766c13f49e7683E+0xa0>
    5154:	41 8b 3a             	mov    (%r10),%edi
    5157:	41 3b 3c 01          	cmp    (%r9,%rax,1),%edi
    515b:	75 b3                	jne    5110 <_ZN4core3str7pattern13simd_contains28_$u7b$$u7b$closure$u7d$$u7d$17hab766c13f49e7683E+0x70>
    515d:	b0 01                	mov    $0x1,%al
    515f:	eb 62                	jmp    51c3 <_ZN4core3str7pattern13simd_contains28_$u7b$$u7b$closure$u7d$$u7d$17hab766c13f49e7683E+0x123>
    5161:	66 66 66 66 66 66 2e 	data16 data16 data16 data16 data16 nopw %cs:0x0(%rax,%rax,1)
    5168:	0f 1f 84 00 00 00 00 
    516f:	00 
    5170:	66 b8 fe ff          	mov    $0xfffe,%ax
    5174:	66 d3 c0             	rol    %cl,%ax
    5177:	66 21 c2             	and    %ax,%dx
    517a:	74 45                	je     51c1 <_ZN4core3str7pattern13simd_contains28_$u7b$$u7b$closure$u7d$$u7d$17hab766c13f49e7683E+0x121>
    517c:	b0 01                	mov    $0x1,%al
    517e:	48 85 ff             	test   %rdi,%rdi
    5181:	74 40                	je     51c3 <_ZN4core3str7pattern13simd_contains28_$u7b$$u7b$closure$u7d$$u7d$17hab766c13f49e7683E+0x123>
    5183:	f3 0f bc ca          	tzcnt  %edx,%ecx
    5187:	4c 8d 14 0e          	lea    (%rsi,%rcx,1),%r10
    518b:	47 0f b6 1c 10       	movzbl (%r8,%r10,1),%r11d
    5190:	45 3a 19             	cmp    (%r9),%r11b
    5193:	75 db                	jne    5170 <_ZN4core3str7pattern13simd_contains28_$u7b$$u7b$closure$u7d$$u7d$17hab766c13f49e7683E+0xd0>
    5195:	48 83 ff 01          	cmp    $0x1,%rdi
    5199:	74 28                	je     51c3 <_ZN4core3str7pattern13simd_contains28_$u7b$$u7b$closure$u7d$$u7d$17hab766c13f49e7683E+0x123>
    519b:	47 0f b6 5c 10 01    	movzbl 0x1(%r8,%r10,1),%r11d
    51a1:	45 3a 59 01          	cmp    0x1(%r9),%r11b
    51a5:	75 c9                	jne    5170 <_ZN4core3str7pattern13simd_contains28_$u7b$$u7b$closure$u7d$$u7d$17hab766c13f49e7683E+0xd0>
    51a7:	48 83 ff 02          	cmp    $0x2,%rdi
    51ab:	74 16                	je     51c3 <_ZN4core3str7pattern13simd_contains28_$u7b$$u7b$closure$u7d$$u7d$17hab766c13f49e7683E+0x123>
    51ad:	47 0f b6 54 10 02    	movzbl 0x2(%r8,%r10,1),%r10d
    51b3:	45 3a 51 02          	cmp    0x2(%r9),%r10b
    51b7:	75 b7                	jne    5170 <_ZN4core3str7pattern13simd_contains28_$u7b$$u7b$closure$u7d$$u7d$17hab766c13f49e7683E+0xd0>
    51b9:	48 83 ff 03          	cmp    $0x3,%rdi
    51bd:	75 b1                	jne    5170 <_ZN4core3str7pattern13simd_contains28_$u7b$$u7b$closure$u7d$$u7d$17hab766c13f49e7683E+0xd0>
    51bf:	eb 02                	jmp    51c3 <_ZN4core3str7pattern13simd_contains28_$u7b$$u7b$closure$u7d$$u7d$17hab766c13f49e7683E+0x123>
    51c1:	31 c0                	xor    %eax,%eax
    51c3:	5b                   	pop    %rbx
    51c4:	c3                   	retq   
    51c5:	66 2e 0f 1f 84 00 00 	nopw   %cs:0x0(%rax,%rax,1)
    51cc:	00 00 00 
    51cf:	90                   	nop

00000000000051d0 <_ZN4core5slice4sort14break_patterns17h49d309a6d9704109E>:
    51d0:	48 83 ec 18          	sub    $0x18,%rsp
    51d4:	48 8d 46 ff          	lea    -0x1(%rsi),%rax
    51d8:	48 0f bd c8          	bsr    %rax,%rcx
    51dc:	f7 d1                	not    %ecx
    51de:	49 c7 c0 ff ff ff ff 	mov    $0xffffffffffffffff,%r8
    51e5:	49 d3 e8             	shr    %cl,%r8
    51e8:	48 89 f2             	mov    %rsi,%rdx
    51eb:	48 d1 ea             	shr    %rdx
    51ee:	49 89 d1             	mov    %rdx,%r9
    51f1:	49 83 e1 fe          	and    $0xfffffffffffffffe,%r9
    51f5:	49 8d 49 ff          	lea    -0x1(%r9),%rcx
    51f9:	48 89 f0             	mov    %rsi,%rax
    51fc:	48 c1 e0 0d          	shl    $0xd,%rax
    5200:	48 31 f0             	xor    %rsi,%rax
    5203:	49 89 c3             	mov    %rax,%r11
    5206:	49 c1 eb 07          	shr    $0x7,%r11
    520a:	49 31 c3             	xor    %rax,%r11
    520d:	4d 89 da             	mov    %r11,%r10
    5210:	49 c1 e2 11          	shl    $0x11,%r10
    5214:	4d 31 da             	xor    %r11,%r10
    5217:	4c 89 d0             	mov    %r10,%rax
    521a:	4c 21 c0             	and    %r8,%rax
    521d:	45 31 db             	xor    %r11d,%r11d
    5220:	48 39 f0             	cmp    %rsi,%rax
    5223:	4c 0f 43 de          	cmovae %rsi,%r11
    5227:	48 39 f1             	cmp    %rsi,%rcx
    522a:	0f 83 71 01 00 00    	jae    53a1 <_ZN4core5slice4sort14break_patterns17h49d309a6d9704109E+0x1d1>
    5230:	4c 29 d8             	sub    %r11,%rax
    5233:	48 39 f0             	cmp    %rsi,%rax
    5236:	0f 83 3f 01 00 00    	jae    537b <_ZN4core5slice4sort14break_patterns17h49d309a6d9704109E+0x1ab>
    523c:	48 8d 0c 49          	lea    (%rcx,%rcx,2),%rcx
    5240:	48 8d 04 40          	lea    (%rax,%rax,2),%rax
    5244:	4c 8b 5c cf 10       	mov    0x10(%rdi,%rcx,8),%r11
    5249:	4c 89 5c 24 10       	mov    %r11,0x10(%rsp)
    524e:	0f 10 04 cf          	movups (%rdi,%rcx,8),%xmm0
    5252:	0f 29 04 24          	movaps %xmm0,(%rsp)
    5256:	4c 8b 5c c7 10       	mov    0x10(%rdi,%rax,8),%r11
    525b:	0f 10 04 c7          	movups (%rdi,%rax,8),%xmm0
    525f:	0f 11 04 cf          	movups %xmm0,(%rdi,%rcx,8)
    5263:	4c 89 5c cf 10       	mov    %r11,0x10(%rdi,%rcx,8)
    5268:	48 8b 4c 24 10       	mov    0x10(%rsp),%rcx
    526d:	48 89 4c c7 10       	mov    %rcx,0x10(%rdi,%rax,8)
    5272:	0f 28 04 24          	movaps (%rsp),%xmm0
    5276:	0f 11 04 c7          	movups %xmm0,(%rdi,%rax,8)
    527a:	4c 89 d0             	mov    %r10,%rax
    527d:	48 c1 e0 0d          	shl    $0xd,%rax
    5281:	4c 31 d0             	xor    %r10,%rax
    5284:	49 89 c2             	mov    %rax,%r10
    5287:	49 c1 ea 07          	shr    $0x7,%r10
    528b:	49 31 c2             	xor    %rax,%r10
    528e:	4c 89 d1             	mov    %r10,%rcx
    5291:	48 c1 e1 11          	shl    $0x11,%rcx
    5295:	4c 31 d1             	xor    %r10,%rcx
    5298:	48 89 c8             	mov    %rcx,%rax
    529b:	4c 21 c0             	and    %r8,%rax
    529e:	45 31 d2             	xor    %r10d,%r10d
    52a1:	48 39 f0             	cmp    %rsi,%rax
    52a4:	4c 0f 43 d6          	cmovae %rsi,%r10
    52a8:	49 39 f1             	cmp    %rsi,%r9
    52ab:	0f 83 da 00 00 00    	jae    538b <_ZN4core5slice4sort14break_patterns17h49d309a6d9704109E+0x1bb>
    52b1:	4c 29 d0             	sub    %r10,%rax
    52b4:	48 39 f0             	cmp    %rsi,%rax
    52b7:	0f 83 be 00 00 00    	jae    537b <_ZN4core5slice4sort14break_patterns17h49d309a6d9704109E+0x1ab>
    52bd:	4f 8d 0c 49          	lea    (%r9,%r9,2),%r9
    52c1:	48 8d 04 40          	lea    (%rax,%rax,2),%rax
    52c5:	4e 8b 54 cf 10       	mov    0x10(%rdi,%r9,8),%r10
    52ca:	4c 89 54 24 10       	mov    %r10,0x10(%rsp)
    52cf:	42 0f 10 04 cf       	movups (%rdi,%r9,8),%xmm0
    52d4:	0f 29 04 24          	movaps %xmm0,(%rsp)
    52d8:	4c 8b 54 c7 10       	mov    0x10(%rdi,%rax,8),%r10
    52dd:	0f 10 04 c7          	movups (%rdi,%rax,8),%xmm0
    52e1:	42 0f 11 04 cf       	movups %xmm0,(%rdi,%r9,8)
    52e6:	4e 89 54 cf 10       	mov    %r10,0x10(%rdi,%r9,8)
    52eb:	4c 8b 4c 24 10       	mov    0x10(%rsp),%r9
    52f0:	4c 89 4c c7 10       	mov    %r9,0x10(%rdi,%rax,8)
    52f5:	0f 28 04 24          	movaps (%rsp),%xmm0
    52f9:	0f 11 04 c7          	movups %xmm0,(%rdi,%rax,8)
    52fd:	48 89 c8             	mov    %rcx,%rax
    5300:	48 c1 e0 0d          	shl    $0xd,%rax
    5304:	48 31 c8             	xor    %rcx,%rax
    5307:	48 89 c1             	mov    %rax,%rcx
    530a:	48 c1 e9 07          	shr    $0x7,%rcx
    530e:	48 31 c1             	xor    %rax,%rcx
    5311:	48 89 c8             	mov    %rcx,%rax
    5314:	48 c1 e0 11          	shl    $0x11,%rax
    5318:	48 31 c8             	xor    %rcx,%rax
    531b:	4c 21 c0             	and    %r8,%rax
    531e:	31 c9                	xor    %ecx,%ecx
    5320:	48 39 f0             	cmp    %rsi,%rax
    5323:	48 0f 43 ce          	cmovae %rsi,%rcx
    5327:	48 83 ca 01          	or     $0x1,%rdx
    532b:	48 39 f2             	cmp    %rsi,%rdx
    532e:	73 6e                	jae    539e <_ZN4core5slice4sort14break_patterns17h49d309a6d9704109E+0x1ce>
    5330:	48 29 c8             	sub    %rcx,%rax
    5333:	48 39 f0             	cmp    %rsi,%rax
    5336:	73 43                	jae    537b <_ZN4core5slice4sort14break_patterns17h49d309a6d9704109E+0x1ab>
    5338:	48 8d 0c 52          	lea    (%rdx,%rdx,2),%rcx
    533c:	48 8d 04 40          	lea    (%rax,%rax,2),%rax
    5340:	48 8b 54 cf 10       	mov    0x10(%rdi,%rcx,8),%rdx
    5345:	48 89 54 24 10       	mov    %rdx,0x10(%rsp)
    534a:	0f 10 04 cf          	movups (%rdi,%rcx,8),%xmm0
    534e:	0f 29 04 24          	movaps %xmm0,(%rsp)
    5352:	48 8b 54 c7 10       	mov    0x10(%rdi,%rax,8),%rdx
    5357:	0f 10 04 c7          	movups (%rdi,%rax,8),%xmm0
    535b:	0f 11 04 cf          	movups %xmm0,(%rdi,%rcx,8)
    535f:	48 89 54 cf 10       	mov    %rdx,0x10(%rdi,%rcx,8)
    5364:	48 8b 4c 24 10       	mov    0x10(%rsp),%rcx
    5369:	48 89 4c c7 10       	mov    %rcx,0x10(%rdi,%rax,8)
    536e:	0f 28 04 24          	movaps (%rsp),%xmm0
    5372:	0f 11 04 c7          	movups %xmm0,(%rdi,%rax,8)
    5376:	48 83 c4 18          	add    $0x18,%rsp
    537a:	c3                   	retq   
    537b:	48 8d 15 6e f2 04 00 	lea    0x4f26e(%rip),%rdx        # 545f0 <__do_global_dtors_aux_fini_array_entry+0x1f8>
    5382:	48 89 c7             	mov    %rax,%rdi
    5385:	ff 15 8d 17 05 00    	callq  *0x5178d(%rip)        # 56b18 <_GLOBAL_OFFSET_TABLE_+0x170>
    538b:	4c 89 c9             	mov    %r9,%rcx
    538e:	48 8d 15 5b f2 04 00 	lea    0x4f25b(%rip),%rdx        # 545f0 <__do_global_dtors_aux_fini_array_entry+0x1f8>
    5395:	48 89 cf             	mov    %rcx,%rdi
    5398:	ff 15 7a 17 05 00    	callq  *0x5177a(%rip)        # 56b18 <_GLOBAL_OFFSET_TABLE_+0x170>
    539e:	48 89 d1             	mov    %rdx,%rcx
    53a1:	48 8d 15 48 f2 04 00 	lea    0x4f248(%rip),%rdx        # 545f0 <__do_global_dtors_aux_fini_array_entry+0x1f8>
    53a8:	48 89 cf             	mov    %rcx,%rdi
    53ab:	ff 15 67 17 05 00    	callq  *0x51767(%rip)        # 56b18 <_GLOBAL_OFFSET_TABLE_+0x170>
    53b1:	66 2e 0f 1f 84 00 00 	nopw   %cs:0x0(%rax,%rax,1)
    53b8:	00 00 00 
    53bb:	0f 1f 44 00 00       	nopl   0x0(%rax,%rax,1)

00000000000053c0 <_ZN4core5slice4sort22partial_insertion_sort17ha96367344e2b3866E>:
    53c0:	55                   	push   %rbp
    53c1:	41 57                	push   %r15
    53c3:	41 56                	push   %r14
    53c5:	41 55                	push   %r13
    53c7:	41 54                	push   %r12
    53c9:	53                   	push   %rbx
    53ca:	48 83 ec 18          	sub    $0x18,%rsp
    53ce:	48 89 f3             	mov    %rsi,%rbx
    53d1:	49 89 fe             	mov    %rdi,%r14
    53d4:	48 83 fe 31          	cmp    $0x31,%rsi
    53d8:	77 5b                	ja     5435 <_ZN4core5slice4sort22partial_insertion_sort17ha96367344e2b3866E+0x75>
    53da:	b8 01 00 00 00       	mov    $0x1,%eax
    53df:	48 83 fb 01          	cmp    $0x1,%rbx
    53e3:	0f 86 3d 02 00 00    	jbe    5626 <_ZN4core5slice4sort22partial_insertion_sort17ha96367344e2b3866E+0x266>
    53e9:	49 8b 4e 18          	mov    0x18(%r14),%rcx
    53ed:	49 3b 0e             	cmp    (%r14),%rcx
    53f0:	0f 82 30 02 00 00    	jb     5626 <_ZN4core5slice4sort22partial_insertion_sort17ha96367344e2b3866E+0x266>
    53f6:	ba 02 00 00 00       	mov    $0x2,%edx
    53fb:	48 29 da             	sub    %rbx,%rdx
    53fe:	49 83 c6 30          	add    $0x30,%r14
    5402:	66 66 66 66 66 2e 0f 	data16 data16 data16 data16 nopw %cs:0x0(%rax,%rax,1)
    5409:	1f 84 00 00 00 00 00 
    5410:	48 8d 34 02          	lea    (%rdx,%rax,1),%rsi
    5414:	48 83 fe 01          	cmp    $0x1,%rsi
    5418:	0f 84 05 02 00 00    	je     5623 <_ZN4core5slice4sort22partial_insertion_sort17ha96367344e2b3866E+0x263>
    541e:	48 ff c0             	inc    %rax
    5421:	49 8b 36             	mov    (%r14),%rsi
    5424:	49 83 c6 18          	add    $0x18,%r14
    5428:	48 39 ce             	cmp    %rcx,%rsi
    542b:	48 89 f1             	mov    %rsi,%rcx
    542e:	73 e0                	jae    5410 <_ZN4core5slice4sort22partial_insertion_sort17ha96367344e2b3866E+0x50>
    5430:	e9 f1 01 00 00       	jmpq   5626 <_ZN4core5slice4sort22partial_insertion_sort17ha96367344e2b3866E+0x266>
    5435:	49 8b 46 18          	mov    0x18(%r14),%rax
    5439:	41 bf 01 00 00 00    	mov    $0x1,%r15d
    543f:	40 b5 01             	mov    $0x1,%bpl
    5442:	b1 01                	mov    $0x1,%cl
    5444:	49 3b 06             	cmp    (%r14),%rax
    5447:	72 3d                	jb     5486 <_ZN4core5slice4sort22partial_insertion_sort17ha96367344e2b3866E+0xc6>
    5449:	49 8d 4e 30          	lea    0x30(%r14),%rcx
    544d:	ba 02 00 00 00       	mov    $0x2,%edx
    5452:	48 29 da             	sub    %rbx,%rdx
    5455:	66 66 2e 0f 1f 84 00 	data16 nopw %cs:0x0(%rax,%rax,1)
    545c:	00 00 00 00 
    5460:	4a 8d 34 3a          	lea    (%rdx,%r15,1),%rsi
    5464:	48 83 fe 01          	cmp    $0x1,%rsi
    5468:	0f 84 42 03 00 00    	je     57b0 <_ZN4core5slice4sort22partial_insertion_sort17ha96367344e2b3866E+0x3f0>
    546e:	48 8b 31             	mov    (%rcx),%rsi
    5471:	48 83 c1 18          	add    $0x18,%rcx
    5475:	49 ff c7             	inc    %r15
    5478:	48 39 c6             	cmp    %rax,%rsi
    547b:	48 89 f0             	mov    %rsi,%rax
    547e:	73 e0                	jae    5460 <_ZN4core5slice4sort22partial_insertion_sort17ha96367344e2b3866E+0xa0>
    5480:	49 39 df             	cmp    %rbx,%r15
    5483:	0f 92 c1             	setb   %cl
    5486:	49 39 df             	cmp    %rbx,%r15
    5489:	0f 84 24 03 00 00    	je     57b3 <_ZN4core5slice4sort22partial_insertion_sort17ha96367344e2b3866E+0x3f3>
    548f:	49 8d 57 ff          	lea    -0x1(%r15),%rdx
    5493:	48 39 da             	cmp    %rbx,%rdx
    5496:	0f 83 a1 03 00 00    	jae    583d <_ZN4core5slice4sort22partial_insertion_sort17ha96367344e2b3866E+0x47d>
    549c:	84 c9                	test   %cl,%cl
    549e:	0f 84 af 03 00 00    	je     5853 <_ZN4core5slice4sort22partial_insertion_sort17ha96367344e2b3866E+0x493>
    54a4:	4c 8d 2c 52          	lea    (%rdx,%rdx,2),%r13
    54a8:	4f 8d 24 7f          	lea    (%r15,%r15,2),%r12
    54ac:	4b 8b 44 ee 10       	mov    0x10(%r14,%r13,8),%rax
    54b1:	48 89 44 24 10       	mov    %rax,0x10(%rsp)
    54b6:	43 0f 10 04 ee       	movups (%r14,%r13,8),%xmm0
    54bb:	0f 29 04 24          	movaps %xmm0,(%rsp)
    54bf:	4b 8b 44 e6 10       	mov    0x10(%r14,%r12,8),%rax
    54c4:	4b 89 44 ee 10       	mov    %rax,0x10(%r14,%r13,8)
    54c9:	43 0f 10 04 e6       	movups (%r14,%r12,8),%xmm0
    54ce:	43 0f 11 04 ee       	movups %xmm0,(%r14,%r13,8)
    54d3:	48 8b 44 24 10       	mov    0x10(%rsp),%rax
    54d8:	4b 89 44 e6 10       	mov    %rax,0x10(%r14,%r12,8)
    54dd:	0f 28 04 24          	movaps (%rsp),%xmm0
    54e1:	43 0f 11 04 e6       	movups %xmm0,(%r14,%r12,8)
    54e6:	49 83 ff 02          	cmp    $0x2,%r15
    54ea:	72 16                	jb     5502 <_ZN4core5slice4sort22partial_insertion_sort17ha96367344e2b3866E+0x142>
    54ec:	4c 89 f7             	mov    %r14,%rdi
    54ef:	4c 89 fe             	mov    %r15,%rsi
    54f2:	e8 39 4a 00 00       	callq  9f30 <_ZN4core5slice4sort25insertion_sort_shift_left17h27b237c0992daff5E>
    54f7:	4c 89 f7             	mov    %r14,%rdi
    54fa:	4c 89 fe             	mov    %r15,%rsi
    54fd:	e8 9e 4e 00 00       	callq  a3a0 <_ZN4core5slice4sort26insertion_sort_shift_right17h2449bed22d6345aeE>
    5502:	49 39 df             	cmp    %rbx,%r15
    5505:	73 54                	jae    555b <_ZN4core5slice4sort22partial_insertion_sort17ha96367344e2b3866E+0x19b>
    5507:	4b 8d 14 ee          	lea    (%r14,%r13,8),%rdx
    550b:	4b 8b 04 e6          	mov    (%r14,%r12,8),%rax
    550f:	b1 01                	mov    $0x1,%cl
    5511:	48 3b 02             	cmp    (%rdx),%rax
    5514:	72 3b                	jb     5551 <_ZN4core5slice4sort22partial_insertion_sort17ha96367344e2b3866E+0x191>
    5516:	4b 8d 0c e6          	lea    (%r14,%r12,8),%rcx
    551a:	48 83 c1 18          	add    $0x18,%rcx
    551e:	48 8d 53 ff          	lea    -0x1(%rbx),%rdx
    5522:	66 66 66 66 66 2e 0f 	data16 data16 data16 data16 nopw %cs:0x0(%rax,%rax,1)
    5529:	1f 84 00 00 00 00 00 
    5530:	4c 39 fa             	cmp    %r15,%rdx
    5533:	0f 84 77 02 00 00    	je     57b0 <_ZN4core5slice4sort22partial_insertion_sort17ha96367344e2b3866E+0x3f0>
    5539:	48 8b 31             	mov    (%rcx),%rsi
    553c:	48 83 c1 18          	add    $0x18,%rcx
    5540:	49 ff c7             	inc    %r15
    5543:	48 39 c6             	cmp    %rax,%rsi
    5546:	48 89 f0             	mov    %rsi,%rax
    5549:	73 e5                	jae    5530 <_ZN4core5slice4sort22partial_insertion_sort17ha96367344e2b3866E+0x170>
    554b:	49 39 df             	cmp    %rbx,%r15
    554e:	0f 92 c1             	setb   %cl
    5551:	49 39 df             	cmp    %rbx,%r15
    5554:	75 10                	jne    5566 <_ZN4core5slice4sort22partial_insertion_sort17ha96367344e2b3866E+0x1a6>
    5556:	e9 58 02 00 00       	jmpq   57b3 <_ZN4core5slice4sort22partial_insertion_sort17ha96367344e2b3866E+0x3f3>
    555b:	31 c9                	xor    %ecx,%ecx
    555d:	49 39 df             	cmp    %rbx,%r15
    5560:	0f 84 4d 02 00 00    	je     57b3 <_ZN4core5slice4sort22partial_insertion_sort17ha96367344e2b3866E+0x3f3>
    5566:	49 8d 57 ff          	lea    -0x1(%r15),%rdx
    556a:	48 39 da             	cmp    %rbx,%rdx
    556d:	0f 83 ca 02 00 00    	jae    583d <_ZN4core5slice4sort22partial_insertion_sort17ha96367344e2b3866E+0x47d>
    5573:	84 c9                	test   %cl,%cl
    5575:	0f 84 d8 02 00 00    	je     5853 <_ZN4core5slice4sort22partial_insertion_sort17ha96367344e2b3866E+0x493>
    557b:	4c 8d 2c 52          	lea    (%rdx,%rdx,2),%r13
    557f:	4f 8d 24 7f          	lea    (%r15,%r15,2),%r12
    5583:	4b 8b 44 ee 10       	mov    0x10(%r14,%r13,8),%rax
    5588:	48 89 44 24 10       	mov    %rax,0x10(%rsp)
    558d:	43 0f 10 04 ee       	movups (%r14,%r13,8),%xmm0
    5592:	0f 29 04 24          	movaps %xmm0,(%rsp)
    5596:	4b 8b 44 e6 10       	mov    0x10(%r14,%r12,8),%rax
    559b:	4b 89 44 ee 10       	mov    %rax,0x10(%r14,%r13,8)
    55a0:	43 0f 10 04 e6       	movups (%r14,%r12,8),%xmm0
    55a5:	43 0f 11 04 ee       	movups %xmm0,(%r14,%r13,8)
    55aa:	48 8b 44 24 10       	mov    0x10(%rsp),%rax
    55af:	4b 89 44 e6 10       	mov    %rax,0x10(%r14,%r12,8)
    55b4:	0f 28 04 24          	movaps (%rsp),%xmm0
    55b8:	43 0f 11 04 e6       	movups %xmm0,(%r14,%r12,8)
    55bd:	49 83 ff 02          	cmp    $0x2,%r15
    55c1:	72 16                	jb     55d9 <_ZN4core5slice4sort22partial_insertion_sort17ha96367344e2b3866E+0x219>
    55c3:	4c 89 f7             	mov    %r14,%rdi
    55c6:	4c 89 fe             	mov    %r15,%rsi
    55c9:	e8 62 49 00 00       	callq  9f30 <_ZN4core5slice4sort25insertion_sort_shift_left17h27b237c0992daff5E>
    55ce:	4c 89 f7             	mov    %r14,%rdi
    55d1:	4c 89 fe             	mov    %r15,%rsi
    55d4:	e8 c7 4d 00 00       	callq  a3a0 <_ZN4core5slice4sort26insertion_sort_shift_right17h2449bed22d6345aeE>
    55d9:	49 39 df             	cmp    %rbx,%r15
    55dc:	73 54                	jae    5632 <_ZN4core5slice4sort22partial_insertion_sort17ha96367344e2b3866E+0x272>
    55de:	4b 8d 14 ee          	lea    (%r14,%r13,8),%rdx
    55e2:	4b 8b 04 e6          	mov    (%r14,%r12,8),%rax
    55e6:	b1 01                	mov    $0x1,%cl
    55e8:	48 3b 02             	cmp    (%rdx),%rax
    55eb:	72 47                	jb     5634 <_ZN4core5slice4sort22partial_insertion_sort17ha96367344e2b3866E+0x274>
    55ed:	4b 8d 0c e6          	lea    (%r14,%r12,8),%rcx
    55f1:	48 83 c1 18          	add    $0x18,%rcx
    55f5:	48 8d 53 ff          	lea    -0x1(%rbx),%rdx
    55f9:	0f 1f 80 00 00 00 00 	nopl   0x0(%rax)
    5600:	4c 39 fa             	cmp    %r15,%rdx
    5603:	0f 84 a7 01 00 00    	je     57b0 <_ZN4core5slice4sort22partial_insertion_sort17ha96367344e2b3866E+0x3f0>
    5609:	48 8b 31             	mov    (%rcx),%rsi
    560c:	48 83 c1 18          	add    $0x18,%rcx
    5610:	49 ff c7             	inc    %r15
    5613:	48 39 c6             	cmp    %rax,%rsi
    5616:	48 89 f0             	mov    %rsi,%rax
    5619:	73 e5                	jae    5600 <_ZN4core5slice4sort22partial_insertion_sort17ha96367344e2b3866E+0x240>
    561b:	49 39 df             	cmp    %rbx,%r15
    561e:	0f 92 c1             	setb   %cl
    5621:	eb 11                	jmp    5634 <_ZN4core5slice4sort22partial_insertion_sort17ha96367344e2b3866E+0x274>
    5623:	48 89 d8             	mov    %rbx,%rax
    5626:	48 39 d8             	cmp    %rbx,%rax
    5629:	40 0f 94 c5          	sete   %bpl
    562d:	e9 81 01 00 00       	jmpq   57b3 <_ZN4core5slice4sort22partial_insertion_sort17ha96367344e2b3866E+0x3f3>
    5632:	31 c9                	xor    %ecx,%ecx
    5634:	49 39 df             	cmp    %rbx,%r15
    5637:	0f 84 76 01 00 00    	je     57b3 <_ZN4core5slice4sort22partial_insertion_sort17ha96367344e2b3866E+0x3f3>
    563d:	49 8d 57 ff          	lea    -0x1(%r15),%rdx
    5641:	48 39 da             	cmp    %rbx,%rdx
    5644:	0f 83 f3 01 00 00    	jae    583d <_ZN4core5slice4sort22partial_insertion_sort17ha96367344e2b3866E+0x47d>
    564a:	84 c9                	test   %cl,%cl
    564c:	0f 84 01 02 00 00    	je     5853 <_ZN4core5slice4sort22partial_insertion_sort17ha96367344e2b3866E+0x493>
    5652:	4c 8d 2c 52          	lea    (%rdx,%rdx,2),%r13
    5656:	4f 8d 24 7f          	lea    (%r15,%r15,2),%r12
    565a:	4b 8b 44 ee 10       	mov    0x10(%r14,%r13,8),%rax
    565f:	48 89 44 24 10       	mov    %rax,0x10(%rsp)
    5664:	43 0f 10 04 ee       	movups (%r14,%r13,8),%xmm0
    5669:	0f 29 04 24          	movaps %xmm0,(%rsp)
    566d:	4b 8b 44 e6 10       	mov    0x10(%r14,%r12,8),%rax
    5672:	4b 89 44 ee 10       	mov    %rax,0x10(%r14,%r13,8)
    5677:	43 0f 10 04 e6       	movups (%r14,%r12,8),%xmm0
    567c:	43 0f 11 04 ee       	movups %xmm0,(%r14,%r13,8)
    5681:	48 8b 44 24 10       	mov    0x10(%rsp),%rax
    5686:	4b 89 44 e6 10       	mov    %rax,0x10(%r14,%r12,8)
    568b:	0f 28 04 24          	movaps (%rsp),%xmm0
    568f:	43 0f 11 04 e6       	movups %xmm0,(%r14,%r12,8)
    5694:	49 83 ff 02          	cmp    $0x2,%r15
    5698:	72 16                	jb     56b0 <_ZN4core5slice4sort22partial_insertion_sort17ha96367344e2b3866E+0x2f0>
    569a:	4c 89 f7             	mov    %r14,%rdi
    569d:	4c 89 fe             	mov    %r15,%rsi
    56a0:	e8 8b 48 00 00       	callq  9f30 <_ZN4core5slice4sort25insertion_sort_shift_left17h27b237c0992daff5E>
    56a5:	4c 89 f7             	mov    %r14,%rdi
    56a8:	4c 89 fe             	mov    %r15,%rsi
    56ab:	e8 f0 4c 00 00       	callq  a3a0 <_ZN4core5slice4sort26insertion_sort_shift_right17h2449bed22d6345aeE>
    56b0:	49 39 df             	cmp    %rbx,%r15
    56b3:	73 3e                	jae    56f3 <_ZN4core5slice4sort22partial_insertion_sort17ha96367344e2b3866E+0x333>
    56b5:	4b 8d 14 ee          	lea    (%r14,%r13,8),%rdx
    56b9:	4b 8b 04 e6          	mov    (%r14,%r12,8),%rax
    56bd:	b1 01                	mov    $0x1,%cl
    56bf:	48 3b 02             	cmp    (%rdx),%rax
    56c2:	72 31                	jb     56f5 <_ZN4core5slice4sort22partial_insertion_sort17ha96367344e2b3866E+0x335>
    56c4:	4b 8d 0c e6          	lea    (%r14,%r12,8),%rcx
    56c8:	48 83 c1 18          	add    $0x18,%rcx
    56cc:	48 8d 53 ff          	lea    -0x1(%rbx),%rdx
    56d0:	4c 39 fa             	cmp    %r15,%rdx
    56d3:	0f 84 d7 00 00 00    	je     57b0 <_ZN4core5slice4sort22partial_insertion_sort17ha96367344e2b3866E+0x3f0>
    56d9:	48 8b 31             	mov    (%rcx),%rsi
    56dc:	48 83 c1 18          	add    $0x18,%rcx
    56e0:	49 ff c7             	inc    %r15
    56e3:	48 39 c6             	cmp    %rax,%rsi
    56e6:	48 89 f0             	mov    %rsi,%rax
    56e9:	73 e5                	jae    56d0 <_ZN4core5slice4sort22partial_insertion_sort17ha96367344e2b3866E+0x310>
    56eb:	49 39 df             	cmp    %rbx,%r15
    56ee:	0f 92 c1             	setb   %cl
    56f1:	eb 02                	jmp    56f5 <_ZN4core5slice4sort22partial_insertion_sort17ha96367344e2b3866E+0x335>
    56f3:	31 c9                	xor    %ecx,%ecx
    56f5:	49 39 df             	cmp    %rbx,%r15
    56f8:	0f 84 b5 00 00 00    	je     57b3 <_ZN4core5slice4sort22partial_insertion_sort17ha96367344e2b3866E+0x3f3>
    56fe:	49 8d 57 ff          	lea    -0x1(%r15),%rdx
    5702:	48 39 da             	cmp    %rbx,%rdx
    5705:	0f 83 32 01 00 00    	jae    583d <_ZN4core5slice4sort22partial_insertion_sort17ha96367344e2b3866E+0x47d>
    570b:	84 c9                	test   %cl,%cl
    570d:	0f 84 40 01 00 00    	je     5853 <_ZN4core5slice4sort22partial_insertion_sort17ha96367344e2b3866E+0x493>
    5713:	4c 8d 2c 52          	lea    (%rdx,%rdx,2),%r13
    5717:	4f 8d 24 7f          	lea    (%r15,%r15,2),%r12
    571b:	4b 8b 44 ee 10       	mov    0x10(%r14,%r13,8),%rax
    5720:	48 89 44 24 10       	mov    %rax,0x10(%rsp)
    5725:	43 0f 10 04 ee       	movups (%r14,%r13,8),%xmm0
    572a:	0f 29 04 24          	movaps %xmm0,(%rsp)
    572e:	4b 8b 44 e6 10       	mov    0x10(%r14,%r12,8),%rax
    5733:	4b 89 44 ee 10       	mov    %rax,0x10(%r14,%r13,8)
    5738:	43 0f 10 04 e6       	movups (%r14,%r12,8),%xmm0
    573d:	43 0f 11 04 ee       	movups %xmm0,(%r14,%r13,8)
    5742:	48 8b 44 24 10       	mov    0x10(%rsp),%rax
    5747:	4b 89 44 e6 10       	mov    %rax,0x10(%r14,%r12,8)
    574c:	0f 28 04 24          	movaps (%rsp),%xmm0
    5750:	43 0f 11 04 e6       	movups %xmm0,(%r14,%r12,8)
    5755:	49 83 ff 02          	cmp    $0x2,%r15
    5759:	72 16                	jb     5771 <_ZN4core5slice4sort22partial_insertion_sort17ha96367344e2b3866E+0x3b1>
    575b:	4c 89 f7             	mov    %r14,%rdi
    575e:	4c 89 fe             	mov    %r15,%rsi
    5761:	e8 ca 47 00 00       	callq  9f30 <_ZN4core5slice4sort25insertion_sort_shift_left17h27b237c0992daff5E>
    5766:	4c 89 f7             	mov    %r14,%rdi
    5769:	4c 89 fe             	mov    %r15,%rsi
    576c:	e8 2f 4c 00 00       	callq  a3a0 <_ZN4core5slice4sort26insertion_sort_shift_right17h2449bed22d6345aeE>
    5771:	49 39 df             	cmp    %rbx,%r15
    5774:	73 4e                	jae    57c4 <_ZN4core5slice4sort22partial_insertion_sort17ha96367344e2b3866E+0x404>
    5776:	4b 8d 14 ee          	lea    (%r14,%r13,8),%rdx
    577a:	4b 8b 04 e6          	mov    (%r14,%r12,8),%rax
    577e:	b1 01                	mov    $0x1,%cl
    5780:	48 3b 02             	cmp    (%rdx),%rax
    5783:	72 41                	jb     57c6 <_ZN4core5slice4sort22partial_insertion_sort17ha96367344e2b3866E+0x406>
    5785:	4b 8d 0c e6          	lea    (%r14,%r12,8),%rcx
    5789:	48 83 c1 18          	add    $0x18,%rcx
    578d:	48 8d 53 ff          	lea    -0x1(%rbx),%rdx
    5791:	4c 39 fa             	cmp    %r15,%rdx
    5794:	74 1a                	je     57b0 <_ZN4core5slice4sort22partial_insertion_sort17ha96367344e2b3866E+0x3f0>
    5796:	48 8b 31             	mov    (%rcx),%rsi
    5799:	48 83 c1 18          	add    $0x18,%rcx
    579d:	49 ff c7             	inc    %r15
    57a0:	48 39 c6             	cmp    %rax,%rsi
    57a3:	48 89 f0             	mov    %rsi,%rax
    57a6:	73 e9                	jae    5791 <_ZN4core5slice4sort22partial_insertion_sort17ha96367344e2b3866E+0x3d1>
    57a8:	49 39 df             	cmp    %rbx,%r15
    57ab:	0f 92 c1             	setb   %cl
    57ae:	eb 16                	jmp    57c6 <_ZN4core5slice4sort22partial_insertion_sort17ha96367344e2b3866E+0x406>
    57b0:	40 b5 01             	mov    $0x1,%bpl
    57b3:	89 e8                	mov    %ebp,%eax
    57b5:	48 83 c4 18          	add    $0x18,%rsp
    57b9:	5b                   	pop    %rbx
    57ba:	41 5c                	pop    %r12
    57bc:	41 5d                	pop    %r13
    57be:	41 5e                	pop    %r14
    57c0:	41 5f                	pop    %r15
    57c2:	5d                   	pop    %rbp
    57c3:	c3                   	retq   
    57c4:	31 c9                	xor    %ecx,%ecx
    57c6:	49 39 df             	cmp    %rbx,%r15
    57c9:	74 e8                	je     57b3 <_ZN4core5slice4sort22partial_insertion_sort17ha96367344e2b3866E+0x3f3>
    57cb:	49 8d 57 ff          	lea    -0x1(%r15),%rdx
    57cf:	48 39 da             	cmp    %rbx,%rdx
    57d2:	73 69                	jae    583d <_ZN4core5slice4sort22partial_insertion_sort17ha96367344e2b3866E+0x47d>
    57d4:	84 c9                	test   %cl,%cl
    57d6:	74 7b                	je     5853 <_ZN4core5slice4sort22partial_insertion_sort17ha96367344e2b3866E+0x493>
    57d8:	48 8d 04 52          	lea    (%rdx,%rdx,2),%rax
    57dc:	4b 8d 0c 7f          	lea    (%r15,%r15,2),%rcx
    57e0:	49 8b 74 c6 10       	mov    0x10(%r14,%rax,8),%rsi
    57e5:	48 89 74 24 10       	mov    %rsi,0x10(%rsp)
    57ea:	41 0f 10 04 c6       	movups (%r14,%rax,8),%xmm0
    57ef:	0f 29 04 24          	movaps %xmm0,(%rsp)
    57f3:	49 8b 74 ce 10       	mov    0x10(%r14,%rcx,8),%rsi
    57f8:	49 89 74 c6 10       	mov    %rsi,0x10(%r14,%rax,8)
    57fd:	41 0f 10 04 ce       	movups (%r14,%rcx,8),%xmm0
    5802:	41 0f 11 04 c6       	movups %xmm0,(%r14,%rax,8)
    5807:	48 8b 44 24 10       	mov    0x10(%rsp),%rax
    580c:	49 89 44 ce 10       	mov    %rax,0x10(%r14,%rcx,8)
    5811:	0f 28 04 24          	movaps (%rsp),%xmm0
    5815:	41 0f 11 04 ce       	movups %xmm0,(%r14,%rcx,8)
    581a:	49 83 ff 02          	cmp    $0x2,%r15
    581e:	72 16                	jb     5836 <_ZN4core5slice4sort22partial_insertion_sort17ha96367344e2b3866E+0x476>
    5820:	4c 89 f7             	mov    %r14,%rdi
    5823:	4c 89 fe             	mov    %r15,%rsi
    5826:	e8 05 47 00 00       	callq  9f30 <_ZN4core5slice4sort25insertion_sort_shift_left17h27b237c0992daff5E>
    582b:	4c 89 f7             	mov    %r14,%rdi
    582e:	4c 89 fe             	mov    %r15,%rsi
    5831:	e8 6a 4b 00 00       	callq  a3a0 <_ZN4core5slice4sort26insertion_sort_shift_right17h2449bed22d6345aeE>
    5836:	31 ed                	xor    %ebp,%ebp
    5838:	e9 76 ff ff ff       	jmpq   57b3 <_ZN4core5slice4sort22partial_insertion_sort17ha96367344e2b3866E+0x3f3>
    583d:	48 8d 05 f4 ed 04 00 	lea    0x4edf4(%rip),%rax        # 54638 <__do_global_dtors_aux_fini_array_entry+0x240>
    5844:	48 89 d7             	mov    %rdx,%rdi
    5847:	48 89 de             	mov    %rbx,%rsi
    584a:	48 89 c2             	mov    %rax,%rdx
    584d:	ff 15 c5 12 05 00    	callq  *0x512c5(%rip)        # 56b18 <_GLOBAL_OFFSET_TABLE_+0x170>
    5853:	48 8d 15 de ed 04 00 	lea    0x4edde(%rip),%rdx        # 54638 <__do_global_dtors_aux_fini_array_entry+0x240>
    585a:	4c 89 ff             	mov    %r15,%rdi
    585d:	48 89 de             	mov    %rbx,%rsi
    5860:	ff 15 b2 12 05 00    	callq  *0x512b2(%rip)        # 56b18 <_GLOBAL_OFFSET_TABLE_+0x170>
    5866:	66 2e 0f 1f 84 00 00 	nopw   %cs:0x0(%rax,%rax,1)
    586d:	00 00 00 

0000000000005870 <_ZN4core5slice4sort8heapsort17h723c3acd8574b8f0E>:
    5870:	48 83 ec 18          	sub    $0x18,%rsp
    5874:	48 83 fe 02          	cmp    $0x2,%rsi
    5878:	0f 82 ff 01 00 00    	jb     5a7d <_ZN4core5slice4sort8heapsort17h723c3acd8574b8f0E+0x20d>
    587e:	48 89 f2             	mov    %rsi,%rdx
    5881:	48 d1 ea             	shr    %rdx
    5884:	eb 13                	jmp    5899 <_ZN4core5slice4sort8heapsort17h723c3acd8574b8f0E+0x29>
    5886:	66 2e 0f 1f 84 00 00 	nopw   %cs:0x0(%rax,%rax,1)
    588d:	00 00 00 
    5890:	48 85 d2             	test   %rdx,%rdx
    5893:	0f 84 c0 00 00 00    	je     5959 <_ZN4core5slice4sort8heapsort17h723c3acd8574b8f0E+0xe9>
    5899:	48 89 d0             	mov    %rdx,%rax
    589c:	48 ff ca             	dec    %rdx
    589f:	4c 8d 04 45 ff ff ff 	lea    -0x1(,%rax,2),%r8
    58a6:	ff 
    58a7:	49 39 f0             	cmp    %rsi,%r8
    58aa:	73 e4                	jae    5890 <_ZN4core5slice4sort8heapsort17h723c3acd8574b8f0E+0x20>
    58ac:	4c 8d 0c 45 fe ff ff 	lea    -0x2(,%rax,2),%r9
    58b3:	ff 
    58b4:	48 89 d1             	mov    %rdx,%rcx
    58b7:	66 0f 1f 84 00 00 00 	nopw   0x0(%rax,%rax,1)
    58be:	00 00 
    58c0:	49 83 c1 02          	add    $0x2,%r9
    58c4:	49 39 f1             	cmp    %rsi,%r9
    58c7:	73 14                	jae    58dd <_ZN4core5slice4sort8heapsort17h723c3acd8574b8f0E+0x6d>
    58c9:	4b 8d 04 40          	lea    (%r8,%r8,2),%rax
    58cd:	4f 8d 0c 49          	lea    (%r9,%r9,2),%r9
    58d1:	48 8b 04 c7          	mov    (%rdi,%rax,8),%rax
    58d5:	4a 3b 04 cf          	cmp    (%rdi,%r9,8),%rax
    58d9:	49 83 d0 00          	adc    $0x0,%r8
    58dd:	4c 89 c0             	mov    %r8,%rax
    58e0:	48 39 f1             	cmp    %rsi,%rcx
    58e3:	0f 83 99 01 00 00    	jae    5a82 <_ZN4core5slice4sort8heapsort17h723c3acd8574b8f0E+0x212>
    58e9:	48 39 f0             	cmp    %rsi,%rax
    58ec:	0f 83 a0 01 00 00    	jae    5a92 <_ZN4core5slice4sort8heapsort17h723c3acd8574b8f0E+0x222>
    58f2:	48 8d 0c 49          	lea    (%rcx,%rcx,2),%rcx
    58f6:	4c 8d 04 40          	lea    (%rax,%rax,2),%r8
    58fa:	4c 8b 0c cf          	mov    (%rdi,%rcx,8),%r9
    58fe:	4e 3b 0c c7          	cmp    (%rdi,%r8,8),%r9
    5902:	73 8c                	jae    5890 <_ZN4core5slice4sort8heapsort17h723c3acd8574b8f0E+0x20>
    5904:	48 8d 0c cf          	lea    (%rdi,%rcx,8),%rcx
    5908:	4e 8d 04 c7          	lea    (%rdi,%r8,8),%r8
    590c:	4c 8b 49 10          	mov    0x10(%rcx),%r9
    5910:	4c 89 4c 24 10       	mov    %r9,0x10(%rsp)
    5915:	0f 10 01             	movups (%rcx),%xmm0
    5918:	0f 29 04 24          	movaps %xmm0,(%rsp)
    591c:	4d 8b 48 10          	mov    0x10(%r8),%r9
    5920:	41 0f 10 00          	movups (%r8),%xmm0
    5924:	0f 11 01             	movups %xmm0,(%rcx)
    5927:	4c 89 49 10          	mov    %r9,0x10(%rcx)
    592b:	48 8b 4c 24 10       	mov    0x10(%rsp),%rcx
    5930:	49 89 48 10          	mov    %rcx,0x10(%r8)
    5934:	0f 28 04 24          	movaps (%rsp),%xmm0
    5938:	41 0f 11 00          	movups %xmm0,(%r8)
    593c:	4c 8d 0c 00          	lea    (%rax,%rax,1),%r9
    5940:	4c 8d 04 45 01 00 00 	lea    0x1(,%rax,2),%r8
    5947:	00 
    5948:	48 89 c1             	mov    %rax,%rcx
    594b:	49 39 f0             	cmp    %rsi,%r8
    594e:	0f 82 6c ff ff ff    	jb     58c0 <_ZN4core5slice4sort8heapsort17h723c3acd8574b8f0E+0x50>
    5954:	e9 37 ff ff ff       	jmpq   5890 <_ZN4core5slice4sort8heapsort17h723c3acd8574b8f0E+0x20>
    5959:	48 83 fe 02          	cmp    $0x2,%rsi
    595d:	0f 82 1a 01 00 00    	jb     5a7d <_ZN4core5slice4sort8heapsort17h723c3acd8574b8f0E+0x20d>
    5963:	48 89 f0             	mov    %rsi,%rax
    5966:	eb 12                	jmp    597a <_ZN4core5slice4sort8heapsort17h723c3acd8574b8f0E+0x10a>
    5968:	0f 1f 84 00 00 00 00 	nopl   0x0(%rax,%rax,1)
    596f:	00 
    5970:	48 83 f8 01          	cmp    $0x1,%rax
    5974:	0f 86 03 01 00 00    	jbe    5a7d <_ZN4core5slice4sort8heapsort17h723c3acd8574b8f0E+0x20d>
    597a:	48 ff c8             	dec    %rax
    597d:	48 39 f0             	cmp    %rsi,%rax
    5980:	0f 83 42 01 00 00    	jae    5ac8 <_ZN4core5slice4sort8heapsort17h723c3acd8574b8f0E+0x258>
    5986:	48 8d 0c 40          	lea    (%rax,%rax,2),%rcx
    598a:	48 8b 57 10          	mov    0x10(%rdi),%rdx
    598e:	48 89 54 24 10       	mov    %rdx,0x10(%rsp)
    5993:	0f 10 07             	movups (%rdi),%xmm0
    5996:	0f 29 04 24          	movaps %xmm0,(%rsp)
    599a:	48 8b 54 cf 10       	mov    0x10(%rdi,%rcx,8),%rdx
    599f:	0f 10 04 cf          	movups (%rdi,%rcx,8),%xmm0
    59a3:	0f 11 07             	movups %xmm0,(%rdi)
    59a6:	48 89 57 10          	mov    %rdx,0x10(%rdi)
    59aa:	48 8b 54 24 10       	mov    0x10(%rsp),%rdx
    59af:	48 89 54 cf 10       	mov    %rdx,0x10(%rdi,%rcx,8)
    59b4:	0f 28 04 24          	movaps (%rsp),%xmm0
    59b8:	0f 11 04 cf          	movups %xmm0,(%rdi,%rcx,8)
    59bc:	48 83 f8 02          	cmp    $0x2,%rax
    59c0:	0f 82 b7 00 00 00    	jb     5a7d <_ZN4core5slice4sort8heapsort17h723c3acd8574b8f0E+0x20d>
    59c6:	ba 01 00 00 00       	mov    $0x1,%edx
    59cb:	45 31 c9             	xor    %r9d,%r9d
    59ce:	45 31 c0             	xor    %r8d,%r8d
    59d1:	66 66 66 66 66 66 2e 	data16 data16 data16 data16 data16 nopw %cs:0x0(%rax,%rax,1)
    59d8:	0f 1f 84 00 00 00 00 
    59df:	00 
    59e0:	49 83 c1 02          	add    $0x2,%r9
    59e4:	49 39 c1             	cmp    %rax,%r9
    59e7:	73 14                	jae    59fd <_ZN4core5slice4sort8heapsort17h723c3acd8574b8f0E+0x18d>
    59e9:	48 8d 0c 52          	lea    (%rdx,%rdx,2),%rcx
    59ed:	4f 8d 0c 49          	lea    (%r9,%r9,2),%r9
    59f1:	48 8b 0c cf          	mov    (%rdi,%rcx,8),%rcx
    59f5:	4a 3b 0c cf          	cmp    (%rdi,%r9,8),%rcx
    59f9:	48 83 d2 00          	adc    $0x0,%rdx
    59fd:	48 89 d1             	mov    %rdx,%rcx
    5a00:	49 39 c0             	cmp    %rax,%r8
    5a03:	0f 83 99 00 00 00    	jae    5aa2 <_ZN4core5slice4sort8heapsort17h723c3acd8574b8f0E+0x232>
    5a09:	48 39 c1             	cmp    %rax,%rcx
    5a0c:	0f 83 a3 00 00 00    	jae    5ab5 <_ZN4core5slice4sort8heapsort17h723c3acd8574b8f0E+0x245>
    5a12:	4b 8d 14 40          	lea    (%r8,%r8,2),%rdx
    5a16:	4c 8d 04 49          	lea    (%rcx,%rcx,2),%r8
    5a1a:	4c 8b 0c d7          	mov    (%rdi,%rdx,8),%r9
    5a1e:	4e 3b 0c c7          	cmp    (%rdi,%r8,8),%r9
    5a22:	0f 83 48 ff ff ff    	jae    5970 <_ZN4core5slice4sort8heapsort17h723c3acd8574b8f0E+0x100>
    5a28:	48 8d 14 d7          	lea    (%rdi,%rdx,8),%rdx
    5a2c:	4e 8d 04 c7          	lea    (%rdi,%r8,8),%r8
    5a30:	4c 8b 4a 10          	mov    0x10(%rdx),%r9
    5a34:	4c 89 4c 24 10       	mov    %r9,0x10(%rsp)
    5a39:	0f 10 02             	movups (%rdx),%xmm0
    5a3c:	0f 29 04 24          	movaps %xmm0,(%rsp)
    5a40:	4d 8b 48 10          	mov    0x10(%r8),%r9
    5a44:	41 0f 10 00          	movups (%r8),%xmm0
    5a48:	0f 11 02             	movups %xmm0,(%rdx)
    5a4b:	4c 89 4a 10          	mov    %r9,0x10(%rdx)
    5a4f:	48 8b 54 24 10       	mov    0x10(%rsp),%rdx
    5a54:	49 89 50 10          	mov    %rdx,0x10(%r8)
    5a58:	0f 28 04 24          	movaps (%rsp),%xmm0
    5a5c:	41 0f 11 00          	movups %xmm0,(%r8)
    5a60:	4c 8d 0c 09          	lea    (%rcx,%rcx,1),%r9
    5a64:	48 8d 14 4d 01 00 00 	lea    0x1(,%rcx,2),%rdx
    5a6b:	00 
    5a6c:	49 89 c8             	mov    %rcx,%r8
    5a6f:	48 39 c2             	cmp    %rax,%rdx
    5a72:	0f 82 68 ff ff ff    	jb     59e0 <_ZN4core5slice4sort8heapsort17h723c3acd8574b8f0E+0x170>
    5a78:	e9 f3 fe ff ff       	jmpq   5970 <_ZN4core5slice4sort8heapsort17h723c3acd8574b8f0E+0x100>
    5a7d:	48 83 c4 18          	add    $0x18,%rsp
    5a81:	c3                   	retq   
    5a82:	48 8d 15 3f ec 04 00 	lea    0x4ec3f(%rip),%rdx        # 546c8 <__do_global_dtors_aux_fini_array_entry+0x2d0>
    5a89:	48 89 cf             	mov    %rcx,%rdi
    5a8c:	ff 15 86 10 05 00    	callq  *0x51086(%rip)        # 56b18 <_GLOBAL_OFFSET_TABLE_+0x170>
    5a92:	48 8d 15 47 ec 04 00 	lea    0x4ec47(%rip),%rdx        # 546e0 <__do_global_dtors_aux_fini_array_entry+0x2e8>
    5a99:	48 89 c7             	mov    %rax,%rdi
    5a9c:	ff 15 76 10 05 00    	callq  *0x51076(%rip)        # 56b18 <_GLOBAL_OFFSET_TABLE_+0x170>
    5aa2:	48 8d 15 1f ec 04 00 	lea    0x4ec1f(%rip),%rdx        # 546c8 <__do_global_dtors_aux_fini_array_entry+0x2d0>
    5aa9:	4c 89 c7             	mov    %r8,%rdi
    5aac:	48 89 c6             	mov    %rax,%rsi
    5aaf:	ff 15 63 10 05 00    	callq  *0x51063(%rip)        # 56b18 <_GLOBAL_OFFSET_TABLE_+0x170>
    5ab5:	48 8d 15 24 ec 04 00 	lea    0x4ec24(%rip),%rdx        # 546e0 <__do_global_dtors_aux_fini_array_entry+0x2e8>
    5abc:	48 89 cf             	mov    %rcx,%rdi
    5abf:	48 89 c6             	mov    %rax,%rsi
    5ac2:	ff 15 50 10 05 00    	callq  *0x51050(%rip)        # 56b18 <_GLOBAL_OFFSET_TABLE_+0x170>
    5ac8:	48 8d 15 e1 eb 04 00 	lea    0x4ebe1(%rip),%rdx        # 546b0 <__do_global_dtors_aux_fini_array_entry+0x2b8>
    5acf:	48 89 c7             	mov    %rax,%rdi
    5ad2:	ff 15 40 10 05 00    	callq  *0x51040(%rip)        # 56b18 <_GLOBAL_OFFSET_TABLE_+0x170>
    5ad8:	0f 1f 84 00 00 00 00 	nopl   0x0(%rax,%rax,1)
    5adf:	00 

0000000000005ae0 <_ZN4core9panicking13assert_failed17ha16d4651de2705a1E>:
    5ae0:	48 83 ec 18          	sub    $0x18,%rsp
    5ae4:	49 89 c9             	mov    %rcx,%r9
    5ae7:	48 89 74 24 08       	mov    %rsi,0x8(%rsp)
    5aec:	48 89 54 24 10       	mov    %rdx,0x10(%rsp)
    5af1:	4c 89 04 24          	mov    %r8,(%rsp)
    5af5:	48 8d 15 84 ec 04 00 	lea    0x4ec84(%rip),%rdx        # 54780 <__do_global_dtors_aux_fini_array_entry+0x388>
    5afc:	48 8d 74 24 08       	lea    0x8(%rsp),%rsi
    5b01:	48 8d 4c 24 10       	lea    0x10(%rsp),%rcx
    5b06:	49 89 d0             	mov    %rdx,%r8
    5b09:	ff 15 09 0f 05 00    	callq  *0x50f09(%rip)        # 56a18 <_GLOBAL_OFFSET_TABLE_+0x70>
    5b0f:	90                   	nop

0000000000005b10 <_ZN5alloc7raw_vec19RawVec$LT$T$C$A$GT$7reserve21do_reserve_and_handle17h3944e0aa76e56cd8E>:
    5b10:	41 56                	push   %r14
    5b12:	53                   	push   %rbx
    5b13:	48 83 ec 38          	sub    $0x38,%rsp
    5b17:	48 01 d6             	add    %rdx,%rsi
    5b1a:	0f 82 9a 00 00 00    	jb     5bba <_ZN5alloc7raw_vec19RawVec$LT$T$C$A$GT$7reserve21do_reserve_and_handle17h3944e0aa76e56cd8E+0xaa>
    5b20:	48 89 fb             	mov    %rdi,%rbx
    5b23:	48 8b 07             	mov    (%rdi),%rax
    5b26:	48 8d 0c 00          	lea    (%rax,%rax,1),%rcx
    5b2a:	48 39 f1             	cmp    %rsi,%rcx
    5b2d:	48 0f 47 f1          	cmova  %rcx,%rsi
    5b31:	48 83 fe 09          	cmp    $0x9,%rsi
    5b35:	41 be 08 00 00 00    	mov    $0x8,%r14d
    5b3b:	4c 0f 43 f6          	cmovae %rsi,%r14
    5b3f:	4c 89 f6             	mov    %r14,%rsi
    5b42:	48 f7 d6             	not    %rsi
    5b45:	48 c1 ee 3f          	shr    $0x3f,%rsi
    5b49:	48 85 c0             	test   %rax,%rax
    5b4c:	74 19                	je     5b67 <_ZN5alloc7raw_vec19RawVec$LT$T$C$A$GT$7reserve21do_reserve_and_handle17h3944e0aa76e56cd8E+0x57>
    5b4e:	48 8b 4b 08          	mov    0x8(%rbx),%rcx
    5b52:	48 89 4c 24 08       	mov    %rcx,0x8(%rsp)
    5b57:	48 c7 44 24 10 01 00 	movq   $0x1,0x10(%rsp)
    5b5e:	00 00 
    5b60:	48 89 44 24 18       	mov    %rax,0x18(%rsp)
    5b65:	eb 09                	jmp    5b70 <_ZN5alloc7raw_vec19RawVec$LT$T$C$A$GT$7reserve21do_reserve_and_handle17h3944e0aa76e56cd8E+0x60>
    5b67:	48 c7 44 24 10 00 00 	movq   $0x0,0x10(%rsp)
    5b6e:	00 00 
    5b70:	48 8d 7c 24 20       	lea    0x20(%rsp),%rdi
    5b75:	48 8d 4c 24 08       	lea    0x8(%rsp),%rcx
    5b7a:	4c 89 f2             	mov    %r14,%rdx
    5b7d:	e8 de 68 00 00       	callq  c460 <_ZN5alloc7raw_vec11finish_grow17h9004bb58c4e85d8dE>
    5b82:	48 83 7c 24 20 00    	cmpq   $0x0,0x20(%rsp)
    5b88:	48 8b 7c 24 28       	mov    0x28(%rsp),%rdi
    5b8d:	74 17                	je     5ba6 <_ZN5alloc7raw_vec19RawVec$LT$T$C$A$GT$7reserve21do_reserve_and_handle17h3944e0aa76e56cd8E+0x96>
    5b8f:	48 b8 01 00 00 00 00 	movabs $0x8000000000000001,%rax
    5b96:	00 00 80 
    5b99:	48 39 c7             	cmp    %rax,%rdi
    5b9c:	75 17                	jne    5bb5 <_ZN5alloc7raw_vec19RawVec$LT$T$C$A$GT$7reserve21do_reserve_and_handle17h3944e0aa76e56cd8E+0xa5>
    5b9e:	48 83 c4 38          	add    $0x38,%rsp
    5ba2:	5b                   	pop    %rbx
    5ba3:	41 5e                	pop    %r14
    5ba5:	c3                   	retq   
    5ba6:	48 89 7b 08          	mov    %rdi,0x8(%rbx)
    5baa:	4c 89 33             	mov    %r14,(%rbx)
    5bad:	48 83 c4 38          	add    $0x38,%rsp
    5bb1:	5b                   	pop    %rbx
    5bb2:	41 5e                	pop    %r14
    5bb4:	c3                   	retq   
    5bb5:	48 85 ff             	test   %rdi,%rdi
    5bb8:	75 06                	jne    5bc0 <_ZN5alloc7raw_vec19RawVec$LT$T$C$A$GT$7reserve21do_reserve_and_handle17h3944e0aa76e56cd8E+0xb0>
    5bba:	ff 15 60 0e 05 00    	callq  *0x50e60(%rip)        # 56a20 <_GLOBAL_OFFSET_TABLE_+0x78>
    5bc0:	48 8b 74 24 30       	mov    0x30(%rsp),%rsi
    5bc5:	ff 15 45 0e 05 00    	callq  *0x50e45(%rip)        # 56a10 <_GLOBAL_OFFSET_TABLE_+0x68>
    5bcb:	0f 1f 44 00 00       	nopl   0x0(%rax,%rax,1)

0000000000005bd0 <_ZN5alloc7raw_vec19RawVec$LT$T$C$A$GT$7reserve21do_reserve_and_handle17hd5da0286e731cbb1E>:
    5bd0:	41 56                	push   %r14
    5bd2:	53                   	push   %rbx
    5bd3:	48 83 ec 38          	sub    $0x38,%rsp
    5bd7:	48 01 d6             	add    %rdx,%rsi
    5bda:	0f 82 b8 00 00 00    	jb     5c98 <_ZN5alloc7raw_vec19RawVec$LT$T$C$A$GT$7reserve21do_reserve_and_handle17hd5da0286e731cbb1E+0xc8>
    5be0:	48 89 fb             	mov    %rdi,%rbx
    5be3:	48 8b 07             	mov    (%rdi),%rax
    5be6:	48 8d 0c 00          	lea    (%rax,%rax,1),%rcx
    5bea:	48 39 f1             	cmp    %rsi,%rcx
    5bed:	48 0f 47 f1          	cmova  %rcx,%rsi
    5bf1:	48 83 fe 05          	cmp    $0x5,%rsi
    5bf5:	41 be 04 00 00 00    	mov    $0x4,%r14d
    5bfb:	4c 0f 43 f6          	cmovae %rsi,%r14
    5bff:	48 b9 56 55 55 55 55 	movabs $0x555555555555556,%rcx
    5c06:	55 55 05 
    5c09:	31 f6                	xor    %esi,%esi
    5c0b:	49 39 ce             	cmp    %rcx,%r14
    5c0e:	40 0f 92 c6          	setb   %sil
    5c12:	4a 8d 0c f5 00 00 00 	lea    0x0(,%r14,8),%rcx
    5c19:	00 
    5c1a:	48 8d 14 49          	lea    (%rcx,%rcx,2),%rdx
    5c1e:	48 c1 e6 03          	shl    $0x3,%rsi
    5c22:	48 85 c0             	test   %rax,%rax
    5c25:	74 21                	je     5c48 <_ZN5alloc7raw_vec19RawVec$LT$T$C$A$GT$7reserve21do_reserve_and_handle17hd5da0286e731cbb1E+0x78>
    5c27:	48 8b 4b 08          	mov    0x8(%rbx),%rcx
    5c2b:	48 c1 e0 03          	shl    $0x3,%rax
    5c2f:	48 8d 04 40          	lea    (%rax,%rax,2),%rax
    5c33:	48 89 4c 24 08       	mov    %rcx,0x8(%rsp)
    5c38:	48 c7 44 24 10 08 00 	movq   $0x8,0x10(%rsp)
    5c3f:	00 00 
    5c41:	48 89 44 24 18       	mov    %rax,0x18(%rsp)
    5c46:	eb 09                	jmp    5c51 <_ZN5alloc7raw_vec19RawVec$LT$T$C$A$GT$7reserve21do_reserve_and_handle17hd5da0286e731cbb1E+0x81>
    5c48:	48 c7 44 24 10 00 00 	movq   $0x0,0x10(%rsp)
    5c4f:	00 00 
    5c51:	48 8d 7c 24 20       	lea    0x20(%rsp),%rdi
    5c56:	48 8d 4c 24 08       	lea    0x8(%rsp),%rcx
    5c5b:	e8 00 68 00 00       	callq  c460 <_ZN5alloc7raw_vec11finish_grow17h9004bb58c4e85d8dE>
    5c60:	48 83 7c 24 20 00    	cmpq   $0x0,0x20(%rsp)
    5c66:	48 8b 7c 24 28       	mov    0x28(%rsp),%rdi
    5c6b:	74 17                	je     5c84 <_ZN5alloc7raw_vec19RawVec$LT$T$C$A$GT$7reserve21do_reserve_and_handle17hd5da0286e731cbb1E+0xb4>
    5c6d:	48 b8 01 00 00 00 00 	movabs $0x8000000000000001,%rax
    5c74:	00 00 80 
    5c77:	48 39 c7             	cmp    %rax,%rdi
    5c7a:	75 17                	jne    5c93 <_ZN5alloc7raw_vec19RawVec$LT$T$C$A$GT$7reserve21do_reserve_and_handle17hd5da0286e731cbb1E+0xc3>
    5c7c:	48 83 c4 38          	add    $0x38,%rsp
    5c80:	5b                   	pop    %rbx
    5c81:	41 5e                	pop    %r14
    5c83:	c3                   	retq   
    5c84:	48 89 7b 08          	mov    %rdi,0x8(%rbx)
    5c88:	4c 89 33             	mov    %r14,(%rbx)
    5c8b:	48 83 c4 38          	add    $0x38,%rsp
    5c8f:	5b                   	pop    %rbx
    5c90:	41 5e                	pop    %r14
    5c92:	c3                   	retq   
    5c93:	48 85 ff             	test   %rdi,%rdi
    5c96:	75 06                	jne    5c9e <_ZN5alloc7raw_vec19RawVec$LT$T$C$A$GT$7reserve21do_reserve_and_handle17hd5da0286e731cbb1E+0xce>
    5c98:	ff 15 82 0d 05 00    	callq  *0x50d82(%rip)        # 56a20 <_GLOBAL_OFFSET_TABLE_+0x78>
    5c9e:	48 8b 74 24 30       	mov    0x30(%rsp),%rsi
    5ca3:	ff 15 67 0d 05 00    	callq  *0x50d67(%rip)        # 56a10 <_GLOBAL_OFFSET_TABLE_+0x68>
    5ca9:	0f 1f 80 00 00 00 00 	nopl   0x0(%rax)

0000000000005cb0 <_ZN5alloc7raw_vec19RawVec$LT$T$C$A$GT$7reserve21do_reserve_and_handle17hdd8a714a6757d5e6E>:
    5cb0:	41 56                	push   %r14
    5cb2:	53                   	push   %rbx
    5cb3:	48 83 ec 38          	sub    $0x38,%rsp
    5cb7:	48 ff c6             	inc    %rsi
    5cba:	0f 84 b2 00 00 00    	je     5d72 <_ZN5alloc7raw_vec19RawVec$LT$T$C$A$GT$7reserve21do_reserve_and_handle17hdd8a714a6757d5e6E+0xc2>
    5cc0:	48 89 fb             	mov    %rdi,%rbx
    5cc3:	48 8b 07             	mov    (%rdi),%rax
    5cc6:	48 8d 0c 00          	lea    (%rax,%rax,1),%rcx
    5cca:	48 39 f1             	cmp    %rsi,%rcx
    5ccd:	48 0f 47 f1          	cmova  %rcx,%rsi
    5cd1:	48 83 fe 05          	cmp    $0x5,%rsi
    5cd5:	41 be 04 00 00 00    	mov    $0x4,%r14d
    5cdb:	4c 0f 43 f6          	cmovae %rsi,%r14
    5cdf:	48 b9 c1 81 03 07 0e 	movabs $0x381c0e070381c1,%rcx
    5ce6:	1c 38 00 
    5ce9:	31 f6                	xor    %esi,%esi
    5ceb:	49 39 ce             	cmp    %rcx,%r14
    5cee:	40 0f 92 c6          	setb   %sil
    5cf2:	49 69 d6 48 02 00 00 	imul   $0x248,%r14,%rdx
    5cf9:	48 c1 e6 03          	shl    $0x3,%rsi
    5cfd:	48 85 c0             	test   %rax,%rax
    5d00:	74 20                	je     5d22 <_ZN5alloc7raw_vec19RawVec$LT$T$C$A$GT$7reserve21do_reserve_and_handle17hdd8a714a6757d5e6E+0x72>
    5d02:	48 8b 4b 08          	mov    0x8(%rbx),%rcx
    5d06:	48 69 c0 48 02 00 00 	imul   $0x248,%rax,%rax
    5d0d:	48 89 4c 24 08       	mov    %rcx,0x8(%rsp)
    5d12:	48 c7 44 24 10 08 00 	movq   $0x8,0x10(%rsp)
    5d19:	00 00 
    5d1b:	48 89 44 24 18       	mov    %rax,0x18(%rsp)
    5d20:	eb 09                	jmp    5d2b <_ZN5alloc7raw_vec19RawVec$LT$T$C$A$GT$7reserve21do_reserve_and_handle17hdd8a714a6757d5e6E+0x7b>
    5d22:	48 c7 44 24 10 00 00 	movq   $0x0,0x10(%rsp)
    5d29:	00 00 
    5d2b:	48 8d 7c 24 20       	lea    0x20(%rsp),%rdi
    5d30:	48 8d 4c 24 08       	lea    0x8(%rsp),%rcx
    5d35:	e8 26 67 00 00       	callq  c460 <_ZN5alloc7raw_vec11finish_grow17h9004bb58c4e85d8dE>
    5d3a:	48 83 7c 24 20 00    	cmpq   $0x0,0x20(%rsp)
    5d40:	48 8b 7c 24 28       	mov    0x28(%rsp),%rdi
    5d45:	74 17                	je     5d5e <_ZN5alloc7raw_vec19RawVec$LT$T$C$A$GT$7reserve21do_reserve_and_handle17hdd8a714a6757d5e6E+0xae>
    5d47:	48 b8 01 00 00 00 00 	movabs $0x8000000000000001,%rax
    5d4e:	00 00 80 
    5d51:	48 39 c7             	cmp    %rax,%rdi
    5d54:	75 17                	jne    5d6d <_ZN5alloc7raw_vec19RawVec$LT$T$C$A$GT$7reserve21do_reserve_and_handle17hdd8a714a6757d5e6E+0xbd>
    5d56:	48 83 c4 38          	add    $0x38,%rsp
    5d5a:	5b                   	pop    %rbx
    5d5b:	41 5e                	pop    %r14
    5d5d:	c3                   	retq   
    5d5e:	48 89 7b 08          	mov    %rdi,0x8(%rbx)
    5d62:	4c 89 33             	mov    %r14,(%rbx)
    5d65:	48 83 c4 38          	add    $0x38,%rsp
    5d69:	5b                   	pop    %rbx
    5d6a:	41 5e                	pop    %r14
    5d6c:	c3                   	retq   
    5d6d:	48 85 ff             	test   %rdi,%rdi
    5d70:	75 06                	jne    5d78 <_ZN5alloc7raw_vec19RawVec$LT$T$C$A$GT$7reserve21do_reserve_and_handle17hdd8a714a6757d5e6E+0xc8>
    5d72:	ff 15 a8 0c 05 00    	callq  *0x50ca8(%rip)        # 56a20 <_GLOBAL_OFFSET_TABLE_+0x78>
    5d78:	48 8b 74 24 30       	mov    0x30(%rsp),%rsi
    5d7d:	ff 15 8d 0c 05 00    	callq  *0x50c8d(%rip)        # 56a10 <_GLOBAL_OFFSET_TABLE_+0x68>
    5d83:	66 2e 0f 1f 84 00 00 	nopw   %cs:0x0(%rax,%rax,1)
    5d8a:	00 00 00 
    5d8d:	0f 1f 00             	nopl   (%rax)

0000000000005d90 <_ZN3std6thread8ThreadId3new9exhausted17h4b709e996c62c933E>:
    5d90:	48 83 ec 38          	sub    $0x38,%rsp
    5d94:	48 8d 05 1d ed 04 00 	lea    0x4ed1d(%rip),%rax        # 54ab8 <__do_global_dtors_aux_fini_array_entry+0x6c0>
    5d9b:	48 89 44 24 08       	mov    %rax,0x8(%rsp)
    5da0:	48 c7 44 24 10 01 00 	movq   $0x1,0x10(%rsp)
    5da7:	00 00 
    5da9:	48 8d 05 80 0a 04 00 	lea    0x40a80(%rip),%rax        # 46830 <_fini+0x237c>
    5db0:	48 89 44 24 18       	mov    %rax,0x18(%rsp)
    5db5:	0f 57 c0             	xorps  %xmm0,%xmm0
    5db8:	0f 11 44 24 20       	movups %xmm0,0x20(%rsp)
    5dbd:	48 8d 35 04 ed 04 00 	lea    0x4ed04(%rip),%rsi        # 54ac8 <__do_global_dtors_aux_fini_array_entry+0x6d0>
    5dc4:	48 8d 7c 24 08       	lea    0x8(%rsp),%rdi
    5dc9:	ff 15 19 12 05 00    	callq  *0x51219(%rip)        # 56fe8 <_GLOBAL_OFFSET_TABLE_+0x640>
    5dcf:	90                   	nop

0000000000005dd0 <_ZN3std7process5abort17hb4bcc1384d0dd71aE>:
    5dd0:	50                   	push   %rax
    5dd1:	ff 15 09 0e 05 00    	callq  *0x50e09(%rip)        # 56be0 <_GLOBAL_OFFSET_TABLE_+0x238>
    5dd7:	66 0f 1f 84 00 00 00 	nopw   0x0(%rax,%rax,1)
    5dde:	00 00 

0000000000005de0 <_ZN3std4sync9once_lock17OnceLock$LT$T$GT$10initialize17hc533de6efe990238E>:
    5de0:	8b 05 c2 12 05 00    	mov    0x512c2(%rip),%eax        # 570a8 <_ZN3std2io5stdio6STDOUT17haf171d711039eaf9E+0x38>
    5de6:	83 f8 04             	cmp    $0x4,%eax
    5de9:	75 01                	jne    5dec <_ZN3std4sync9once_lock17OnceLock$LT$T$GT$10initialize17hc533de6efe990238E+0xc>
    5deb:	c3                   	retq   
    5dec:	48 83 ec 28          	sub    $0x28,%rsp
    5df0:	48 89 7c 24 10       	mov    %rdi,0x10(%rsp)
    5df5:	48 8d 05 74 12 05 00 	lea    0x51274(%rip),%rax        # 57070 <_ZN3std2io5stdio6STDOUT17haf171d711039eaf9E>
    5dfc:	48 89 44 24 18       	mov    %rax,0x18(%rsp)
    5e01:	48 8d 44 24 07       	lea    0x7(%rsp),%rax
    5e06:	48 89 44 24 20       	mov    %rax,0x20(%rsp)
    5e0b:	48 8d 44 24 10       	lea    0x10(%rsp),%rax
    5e10:	48 89 44 24 08       	mov    %rax,0x8(%rsp)
    5e15:	48 8d 7c 24 08       	lea    0x8(%rsp),%rdi
    5e1a:	e8 71 06 00 00       	callq  6490 <_ZN3std10sys_common4once5futex4Once4call17h6af9cd87f78efdacE>
    5e1f:	48 83 c4 28          	add    $0x28,%rsp
    5e23:	c3                   	retq   
    5e24:	66 2e 0f 1f 84 00 00 	nopw   %cs:0x0(%rax,%rax,1)
    5e2b:	00 00 00 
    5e2e:	66 90                	xchg   %ax,%ax

0000000000005e30 <_ZN3std3sys3pal6common14small_c_string24run_with_cstr_allocating17h8c5a72bacd4bb27cE>:
    5e30:	41 57                	push   %r15
    5e32:	41 56                	push   %r14
    5e34:	53                   	push   %rbx
    5e35:	48 81 ec d0 00 00 00 	sub    $0xd0,%rsp
    5e3c:	49 89 ff             	mov    %rdi,%r15
    5e3f:	48 89 e7             	mov    %rsp,%rdi
    5e42:	ff 15 70 0e 05 00    	callq  *0x50e70(%rip)        # 56cb8 <_GLOBAL_OFFSET_TABLE_+0x310>
    5e48:	48 8b 34 24          	mov    (%rsp),%rsi
    5e4c:	48 b8 00 00 00 00 00 	movabs $0x8000000000000000,%rax
    5e53:	00 00 80 
    5e56:	48 39 c6             	cmp    %rax,%rsi
    5e59:	0f 85 9e 00 00 00    	jne    5efd <_ZN3std3sys3pal6common14small_c_string24run_with_cstr_allocating17h8c5a72bacd4bb27cE+0xcd>
    5e5f:	48 8b 5c 24 08       	mov    0x8(%rsp),%rbx
    5e64:	4c 8b 74 24 10       	mov    0x10(%rsp),%r14
    5e69:	48 8d 7c 24 20       	lea    0x20(%rsp),%rdi
    5e6e:	be 9c ff ff ff       	mov    $0xffffff9c,%esi
    5e73:	48 89 da             	mov    %rbx,%rdx
    5e76:	31 c9                	xor    %ecx,%ecx
    5e78:	e8 f3 fe 01 00       	callq  25d70 <_ZN3std3sys3pal4unix2fs9try_statx17h1ff3ff3e830226a2E>
    5e7d:	83 7c 24 20 03       	cmpl   $0x3,0x20(%rsp)
    5e82:	0f 85 98 00 00 00    	jne    5f20 <_ZN3std3sys3pal6common14small_c_string24run_with_cstr_allocating17h8c5a72bacd4bb27cE+0xf0>
    5e88:	0f 57 c0             	xorps  %xmm0,%xmm0
    5e8b:	0f 29 84 24 a0 00 00 	movaps %xmm0,0xa0(%rsp)
    5e92:	00 
    5e93:	0f 29 84 24 90 00 00 	movaps %xmm0,0x90(%rsp)
    5e9a:	00 
    5e9b:	0f 29 84 24 80 00 00 	movaps %xmm0,0x80(%rsp)
    5ea2:	00 
    5ea3:	0f 29 44 24 70       	movaps %xmm0,0x70(%rsp)
    5ea8:	0f 29 44 24 60       	movaps %xmm0,0x60(%rsp)
    5ead:	0f 29 44 24 50       	movaps %xmm0,0x50(%rsp)
    5eb2:	0f 29 44 24 40       	movaps %xmm0,0x40(%rsp)
    5eb7:	0f 29 44 24 30       	movaps %xmm0,0x30(%rsp)
    5ebc:	0f 29 44 24 20       	movaps %xmm0,0x20(%rsp)
    5ec1:	48 8d 74 24 20       	lea    0x20(%rsp),%rsi
    5ec6:	48 89 df             	mov    %rbx,%rdi
    5ec9:	ff 15 59 0d 05 00    	callq  *0x50d59(%rip)        # 56c28 <_GLOBAL_OFFSET_TABLE_+0x280>
    5ecf:	83 f8 ff             	cmp    $0xffffffff,%eax
    5ed2:	0f 84 80 00 00 00    	je     5f58 <_ZN3std3sys3pal6common14small_c_string24run_with_cstr_allocating17h8c5a72bacd4bb27cE+0x128>
    5ed8:	49 8d 7f 20          	lea    0x20(%r15),%rdi
    5edc:	48 8d 74 24 20       	lea    0x20(%rsp),%rsi
    5ee1:	ba 90 00 00 00       	mov    $0x90,%edx
    5ee6:	ff 15 64 0e 05 00    	callq  *0x50e64(%rip)        # 56d50 <memcpy@GLIBC_2.14>
    5eec:	49 c7 07 00 00 00 00 	movq   $0x0,(%r15)
    5ef3:	c6 03 00             	movb   $0x0,(%rbx)
    5ef6:	4d 85 f6             	test   %r14,%r14
    5ef9:	75 40                	jne    5f3b <_ZN3std3sys3pal6common14small_c_string24run_with_cstr_allocating17h8c5a72bacd4bb27cE+0x10b>
    5efb:	eb 7e                	jmp    5f7b <_ZN3std3sys3pal6common14small_c_string24run_with_cstr_allocating17h8c5a72bacd4bb27cE+0x14b>
    5efd:	48 8d 05 14 ef 04 00 	lea    0x4ef14(%rip),%rax        # 54e18 <__do_global_dtors_aux_fini_array_entry+0xa20>
    5f04:	49 89 47 08          	mov    %rax,0x8(%r15)
    5f08:	49 c7 07 02 00 00 00 	movq   $0x2,(%r15)
    5f0f:	48 85 f6             	test   %rsi,%rsi
    5f12:	74 67                	je     5f7b <_ZN3std3sys3pal6common14small_c_string24run_with_cstr_allocating17h8c5a72bacd4bb27cE+0x14b>
    5f14:	48 8b 7c 24 08       	mov    0x8(%rsp),%rdi
    5f19:	ba 01 00 00 00       	mov    $0x1,%edx
    5f1e:	eb 26                	jmp    5f46 <_ZN3std3sys3pal6common14small_c_string24run_with_cstr_allocating17h8c5a72bacd4bb27cE+0x116>
    5f20:	48 8d 74 24 20       	lea    0x20(%rsp),%rsi
    5f25:	ba b0 00 00 00       	mov    $0xb0,%edx
    5f2a:	4c 89 ff             	mov    %r15,%rdi
    5f2d:	ff 15 1d 0e 05 00    	callq  *0x50e1d(%rip)        # 56d50 <memcpy@GLIBC_2.14>
    5f33:	c6 03 00             	movb   $0x0,(%rbx)
    5f36:	4d 85 f6             	test   %r14,%r14
    5f39:	74 40                	je     5f7b <_ZN3std3sys3pal6common14small_c_string24run_with_cstr_allocating17h8c5a72bacd4bb27cE+0x14b>
    5f3b:	ba 01 00 00 00       	mov    $0x1,%edx
    5f40:	48 89 df             	mov    %rbx,%rdi
    5f43:	4c 89 f6             	mov    %r14,%rsi
    5f46:	48 81 c4 d0 00 00 00 	add    $0xd0,%rsp
    5f4d:	5b                   	pop    %rbx
    5f4e:	41 5e                	pop    %r14
    5f50:	41 5f                	pop    %r15
    5f52:	ff 25 e8 0c 05 00    	jmpq   *0x50ce8(%rip)        # 56c40 <_GLOBAL_OFFSET_TABLE_+0x298>
    5f58:	ff 15 fa 0a 05 00    	callq  *0x50afa(%rip)        # 56a58 <__errno_location@GLIBC_2.2.5>
    5f5e:	8b 00                	mov    (%rax),%eax
    5f60:	48 c1 e0 20          	shl    $0x20,%rax
    5f64:	48 83 c8 02          	or     $0x2,%rax
    5f68:	49 89 47 08          	mov    %rax,0x8(%r15)
    5f6c:	49 c7 07 02 00 00 00 	movq   $0x2,(%r15)
    5f73:	c6 03 00             	movb   $0x0,(%rbx)
    5f76:	4d 85 f6             	test   %r14,%r14
    5f79:	75 c0                	jne    5f3b <_ZN3std3sys3pal6common14small_c_string24run_with_cstr_allocating17h8c5a72bacd4bb27cE+0x10b>
    5f7b:	48 81 c4 d0 00 00 00 	add    $0xd0,%rsp
    5f82:	5b                   	pop    %rbx
    5f83:	41 5e                	pop    %r14
    5f85:	41 5f                	pop    %r15
    5f87:	c3                   	retq   
    5f88:	49 89 c7             	mov    %rax,%r15
    5f8b:	c6 03 00             	movb   $0x0,(%rbx)
    5f8e:	4d 85 f6             	test   %r14,%r14
    5f91:	74 11                	je     5fa4 <_ZN3std3sys3pal6common14small_c_string24run_with_cstr_allocating17h8c5a72bacd4bb27cE+0x174>
    5f93:	ba 01 00 00 00       	mov    $0x1,%edx
    5f98:	48 89 df             	mov    %rbx,%rdi
    5f9b:	4c 89 f6             	mov    %r14,%rsi
    5f9e:	ff 15 9c 0c 05 00    	callq  *0x50c9c(%rip)        # 56c40 <_GLOBAL_OFFSET_TABLE_+0x298>
    5fa4:	4c 89 ff             	mov    %r15,%rdi
    5fa7:	e8 d4 f0 ff ff       	callq  5080 <_Unwind_Resume@plt>
    5fac:	0f 1f 40 00          	nopl   0x0(%rax)

0000000000005fb0 <_ZN3std3sys3pal6common14small_c_string24run_with_cstr_allocating17hc93df196355a8bc1E>:
    5fb0:	41 57                	push   %r15
    5fb2:	41 56                	push   %r14
    5fb4:	41 54                	push   %r12
    5fb6:	53                   	push   %rbx
    5fb7:	48 83 ec 28          	sub    $0x28,%rsp
    5fbb:	48 89 f2             	mov    %rsi,%rdx
    5fbe:	48 89 fe             	mov    %rdi,%rsi
    5fc1:	48 8d 7c 24 08       	lea    0x8(%rsp),%rdi
    5fc6:	ff 15 ec 0c 05 00    	callq  *0x50cec(%rip)        # 56cb8 <_GLOBAL_OFFSET_TABLE_+0x310>
    5fcc:	48 8b 74 24 08       	mov    0x8(%rsp),%rsi
    5fd1:	48 b8 00 00 00 00 00 	movabs $0x8000000000000000,%rax
    5fd8:	00 00 80 
    5fdb:	48 39 c6             	cmp    %rax,%rsi
    5fde:	75 3a                	jne    601a <_ZN3std3sys3pal6common14small_c_string24run_with_cstr_allocating17hc93df196355a8bc1E+0x6a>
    5fe0:	4c 8b 7c 24 10       	mov    0x10(%rsp),%r15
    5fe5:	4c 8b 64 24 18       	mov    0x18(%rsp),%r12
    5fea:	45 31 f6             	xor    %r14d,%r14d
    5fed:	4c 89 ff             	mov    %r15,%rdi
    5ff0:	31 f6                	xor    %esi,%esi
    5ff2:	ff 15 50 0d 05 00    	callq  *0x50d50(%rip)        # 56d48 <realpath@GLIBC_2.3>
    5ff8:	48 89 c3             	mov    %rax,%rbx
    5ffb:	41 c6 07 00          	movb   $0x0,(%r15)
    5fff:	4d 85 e4             	test   %r12,%r12
    6002:	74 40                	je     6044 <_ZN3std3sys3pal6common14small_c_string24run_with_cstr_allocating17hc93df196355a8bc1E+0x94>
    6004:	ba 01 00 00 00       	mov    $0x1,%edx
    6009:	4c 89 ff             	mov    %r15,%rdi
    600c:	4c 89 e6             	mov    %r12,%rsi
    600f:	ff 15 2b 0c 05 00    	callq  *0x50c2b(%rip)        # 56c40 <_GLOBAL_OFFSET_TABLE_+0x298>
    6015:	45 31 f6             	xor    %r14d,%r14d
    6018:	eb 2a                	jmp    6044 <_ZN3std3sys3pal6common14small_c_string24run_with_cstr_allocating17hc93df196355a8bc1E+0x94>
    601a:	48 8d 1d f7 ed 04 00 	lea    0x4edf7(%rip),%rbx        # 54e18 <__do_global_dtors_aux_fini_array_entry+0xa20>
    6021:	48 85 f6             	test   %rsi,%rsi
    6024:	74 18                	je     603e <_ZN3std3sys3pal6common14small_c_string24run_with_cstr_allocating17hc93df196355a8bc1E+0x8e>
    6026:	48 8b 7c 24 10       	mov    0x10(%rsp),%rdi
    602b:	41 be 01 00 00 00    	mov    $0x1,%r14d
    6031:	ba 01 00 00 00       	mov    $0x1,%edx
    6036:	ff 15 04 0c 05 00    	callq  *0x50c04(%rip)        # 56c40 <_GLOBAL_OFFSET_TABLE_+0x298>
    603c:	eb 06                	jmp    6044 <_ZN3std3sys3pal6common14small_c_string24run_with_cstr_allocating17hc93df196355a8bc1E+0x94>
    603e:	41 be 01 00 00 00    	mov    $0x1,%r14d
    6044:	4c 89 f0             	mov    %r14,%rax
    6047:	48 89 da             	mov    %rbx,%rdx
    604a:	48 83 c4 28          	add    $0x28,%rsp
    604e:	5b                   	pop    %rbx
    604f:	41 5c                	pop    %r12
    6051:	41 5e                	pop    %r14
    6053:	41 5f                	pop    %r15
    6055:	c3                   	retq   
    6056:	66 2e 0f 1f 84 00 00 	nopw   %cs:0x0(%rax,%rax,1)
    605d:	00 00 00 

0000000000006060 <_ZN3std3sys3pal6common14small_c_string24run_with_cstr_allocating17hde07b0efdee72b2fE>:
    6060:	41 57                	push   %r15
    6062:	41 56                	push   %r14
    6064:	41 54                	push   %r12
    6066:	53                   	push   %rbx
    6067:	48 83 ec 28          	sub    $0x28,%rsp
    606b:	49 89 cf             	mov    %rcx,%r15
    606e:	49 89 fc             	mov    %rdi,%r12
    6071:	48 8d 7c 24 08       	lea    0x8(%rsp),%rdi
    6076:	ff 15 3c 0c 05 00    	callq  *0x50c3c(%rip)        # 56cb8 <_GLOBAL_OFFSET_TABLE_+0x310>
    607c:	48 8b 74 24 08       	mov    0x8(%rsp),%rsi
    6081:	48 b8 00 00 00 00 00 	movabs $0x8000000000000000,%rax
    6088:	00 00 80 
    608b:	48 39 c6             	cmp    %rax,%rsi
    608e:	75 2d                	jne    60bd <_ZN3std3sys3pal6common14small_c_string24run_with_cstr_allocating17hde07b0efdee72b2fE+0x5d>
    6090:	48 8b 5c 24 10       	mov    0x10(%rsp),%rbx
    6095:	4c 8b 74 24 18       	mov    0x18(%rsp),%r14
    609a:	4c 89 e7             	mov    %r12,%rdi
    609d:	48 89 de             	mov    %rbx,%rsi
    60a0:	4c 89 fa             	mov    %r15,%rdx
    60a3:	e8 28 ed 01 00       	callq  24dd0 <_ZN3std3sys3pal4unix2fs4File6open_c17h38ddcd550e8fd388E>
    60a8:	c6 03 00             	movb   $0x0,(%rbx)
    60ab:	4d 85 f6             	test   %r14,%r14
    60ae:	74 41                	je     60f1 <_ZN3std3sys3pal6common14small_c_string24run_with_cstr_allocating17hde07b0efdee72b2fE+0x91>
    60b0:	ba 01 00 00 00       	mov    $0x1,%edx
    60b5:	48 89 df             	mov    %rbx,%rdi
    60b8:	4c 89 f6             	mov    %r14,%rsi
    60bb:	eb 23                	jmp    60e0 <_ZN3std3sys3pal6common14small_c_string24run_with_cstr_allocating17hde07b0efdee72b2fE+0x80>
    60bd:	48 8d 05 54 ed 04 00 	lea    0x4ed54(%rip),%rax        # 54e18 <__do_global_dtors_aux_fini_array_entry+0xa20>
    60c4:	49 89 44 24 08       	mov    %rax,0x8(%r12)
    60c9:	41 c7 04 24 01 00 00 	movl   $0x1,(%r12)
    60d0:	00 
    60d1:	48 85 f6             	test   %rsi,%rsi
    60d4:	74 1b                	je     60f1 <_ZN3std3sys3pal6common14small_c_string24run_with_cstr_allocating17hde07b0efdee72b2fE+0x91>
    60d6:	48 8b 7c 24 10       	mov    0x10(%rsp),%rdi
    60db:	ba 01 00 00 00       	mov    $0x1,%edx
    60e0:	48 83 c4 28          	add    $0x28,%rsp
    60e4:	5b                   	pop    %rbx
    60e5:	41 5c                	pop    %r12
    60e7:	41 5e                	pop    %r14
    60e9:	41 5f                	pop    %r15
    60eb:	ff 25 4f 0b 05 00    	jmpq   *0x50b4f(%rip)        # 56c40 <_GLOBAL_OFFSET_TABLE_+0x298>
    60f1:	48 83 c4 28          	add    $0x28,%rsp
    60f5:	5b                   	pop    %rbx
    60f6:	41 5c                	pop    %r12
    60f8:	41 5e                	pop    %r14
    60fa:	41 5f                	pop    %r15
    60fc:	c3                   	retq   
    60fd:	49 89 c7             	mov    %rax,%r15
    6100:	c6 03 00             	movb   $0x0,(%rbx)
    6103:	4d 85 f6             	test   %r14,%r14
    6106:	74 11                	je     6119 <_ZN3std3sys3pal6common14small_c_string24run_with_cstr_allocating17hde07b0efdee72b2fE+0xb9>
    6108:	ba 01 00 00 00       	mov    $0x1,%edx
    610d:	48 89 df             	mov    %rbx,%rdi
    6110:	4c 89 f6             	mov    %r14,%rsi
    6113:	ff 15 27 0b 05 00    	callq  *0x50b27(%rip)        # 56c40 <_GLOBAL_OFFSET_TABLE_+0x298>
    6119:	4c 89 ff             	mov    %r15,%rdi
    611c:	e8 5f ef ff ff       	callq  5080 <_Unwind_Resume@plt>
    6121:	66 2e 0f 1f 84 00 00 	nopw   %cs:0x0(%rax,%rax,1)
    6128:	00 00 00 
    612b:	0f 1f 44 00 00       	nopl   0x0(%rax,%rax,1)

0000000000006130 <_ZN3std9panicking11panic_count17is_zero_slow_path17h543df05e29dd2515E>:
    6130:	50                   	push   %rax
    6131:	66 66 66 64 48 8b 04 	data16 data16 data16 mov %fs:0x0,%rax
    6138:	25 00 00 00 00 
    613d:	48 83 b8 b0 ff ff ff 	cmpq   $0x0,-0x50(%rax)
    6144:	00 
    6145:	0f 94 c0             	sete   %al
    6148:	59                   	pop    %rcx
    6149:	c3                   	retq   
    614a:	66 0f 1f 44 00 00    	nopw   0x0(%rax,%rax,1)

0000000000006150 <_ZN3std3sys3pal4unix5locks11futex_mutex5Mutex14lock_contended17h7ecb1c37b84aea97E>:
    6150:	41 57                	push   %r15
    6152:	41 56                	push   %r14
    6154:	41 54                	push   %r12
    6156:	53                   	push   %rbx
    6157:	48 83 ec 28          	sub    $0x28,%rsp
    615b:	48 89 fb             	mov    %rdi,%rbx
    615e:	8b 07                	mov    (%rdi),%eax
    6160:	83 f8 01             	cmp    $0x1,%eax
    6163:	75 1d                	jne    6182 <_ZN3std3sys3pal4unix5locks11futex_mutex5Mutex14lock_contended17h7ecb1c37b84aea97E+0x32>
    6165:	b9 9d ff ff ff       	mov    $0xffffff9d,%ecx
    616a:	66 0f 1f 44 00 00    	nopw   0x0(%rax,%rax,1)
    6170:	f3 90                	pause  
    6172:	8b 03                	mov    (%rbx),%eax
    6174:	83 f8 01             	cmp    $0x1,%eax
    6177:	75 09                	jne    6182 <_ZN3std3sys3pal4unix5locks11futex_mutex5Mutex14lock_contended17h7ecb1c37b84aea97E+0x32>
    6179:	8d 51 01             	lea    0x1(%rcx),%edx
    617c:	85 c9                	test   %ecx,%ecx
    617e:	89 d1                	mov    %edx,%ecx
    6180:	75 ee                	jne    6170 <_ZN3std3sys3pal4unix5locks11futex_mutex5Mutex14lock_contended17h7ecb1c37b84aea97E+0x20>
    6182:	85 c0                	test   %eax,%eax
    6184:	75 19                	jne    619f <_ZN3std3sys3pal4unix5locks11futex_mutex5Mutex14lock_contended17h7ecb1c37b84aea97E+0x4f>
    6186:	b9 01 00 00 00       	mov    $0x1,%ecx
    618b:	31 c0                	xor    %eax,%eax
    618d:	f0 0f b1 0b          	lock cmpxchg %ecx,(%rbx)
    6191:	75 0c                	jne    619f <_ZN3std3sys3pal4unix5locks11futex_mutex5Mutex14lock_contended17h7ecb1c37b84aea97E+0x4f>
    6193:	48 83 c4 28          	add    $0x28,%rsp
    6197:	5b                   	pop    %rbx
    6198:	41 5c                	pop    %r12
    619a:	41 5e                	pop    %r14
    619c:	41 5f                	pop    %r15
    619e:	c3                   	retq   
    619f:	4c 8d 74 24 18       	lea    0x18(%rsp),%r14
    61a4:	4c 8b 3d 75 0b 05 00 	mov    0x50b75(%rip),%r15        # 56d20 <syscall@GLIBC_2.2.5>
    61ab:	4c 8b 25 a6 08 05 00 	mov    0x508a6(%rip),%r12        # 56a58 <__errno_location@GLIBC_2.2.5>
    61b2:	66 66 66 66 66 2e 0f 	data16 data16 data16 data16 nopw %cs:0x0(%rax,%rax,1)
    61b9:	1f 84 00 00 00 00 00 
    61c0:	83 f8 02             	cmp    $0x2,%eax
    61c3:	74 0b                	je     61d0 <_ZN3std3sys3pal4unix5locks11futex_mutex5Mutex14lock_contended17h7ecb1c37b84aea97E+0x80>
    61c5:	b8 02 00 00 00       	mov    $0x2,%eax
    61ca:	87 03                	xchg   %eax,(%rbx)
    61cc:	85 c0                	test   %eax,%eax
    61ce:	74 c3                	je     6193 <_ZN3std3sys3pal4unix5locks11futex_mutex5Mutex14lock_contended17h7ecb1c37b84aea97E+0x43>
    61d0:	48 c7 44 24 10 00 00 	movq   $0x0,0x10(%rsp)
    61d7:	00 00 
    61d9:	0f 1f 80 00 00 00 00 	nopl   0x0(%rax)
    61e0:	8b 03                	mov    (%rbx),%eax
    61e2:	83 f8 02             	cmp    $0x2,%eax
    61e5:	75 3a                	jne    6221 <_ZN3std3sys3pal4unix5locks11futex_mutex5Mutex14lock_contended17h7ecb1c37b84aea97E+0xd1>
    61e7:	4c 8b 44 24 10       	mov    0x10(%rsp),%r8
    61ec:	4d 85 c0             	test   %r8,%r8
    61ef:	4d 0f 45 c6          	cmovne %r14,%r8
    61f3:	c7 04 24 ff ff ff ff 	movl   $0xffffffff,(%rsp)
    61fa:	bf ca 00 00 00       	mov    $0xca,%edi
    61ff:	48 89 de             	mov    %rbx,%rsi
    6202:	ba 89 00 00 00       	mov    $0x89,%edx
    6207:	b9 02 00 00 00       	mov    $0x2,%ecx
    620c:	45 31 c9             	xor    %r9d,%r9d
    620f:	31 c0                	xor    %eax,%eax
    6211:	41 ff d7             	callq  *%r15
    6214:	48 85 c0             	test   %rax,%rax
    6217:	79 08                	jns    6221 <_ZN3std3sys3pal4unix5locks11futex_mutex5Mutex14lock_contended17h7ecb1c37b84aea97E+0xd1>
    6219:	41 ff d4             	callq  *%r12
    621c:	83 38 04             	cmpl   $0x4,(%rax)
    621f:	74 bf                	je     61e0 <_ZN3std3sys3pal4unix5locks11futex_mutex5Mutex14lock_contended17h7ecb1c37b84aea97E+0x90>
    6221:	8b 03                	mov    (%rbx),%eax
    6223:	83 f8 01             	cmp    $0x1,%eax
    6226:	75 98                	jne    61c0 <_ZN3std3sys3pal4unix5locks11futex_mutex5Mutex14lock_contended17h7ecb1c37b84aea97E+0x70>
    6228:	b9 9d ff ff ff       	mov    $0xffffff9d,%ecx
    622d:	0f 1f 00             	nopl   (%rax)
    6230:	f3 90                	pause  
    6232:	8b 03                	mov    (%rbx),%eax
    6234:	8d 51 01             	lea    0x1(%rcx),%edx
    6237:	83 f8 01             	cmp    $0x1,%eax
    623a:	75 84                	jne    61c0 <_ZN3std3sys3pal4unix5locks11futex_mutex5Mutex14lock_contended17h7ecb1c37b84aea97E+0x70>
    623c:	85 c9                	test   %ecx,%ecx
    623e:	89 d1                	mov    %edx,%ecx
    6240:	75 ee                	jne    6230 <_ZN3std3sys3pal4unix5locks11futex_mutex5Mutex14lock_contended17h7ecb1c37b84aea97E+0xe0>
    6242:	e9 79 ff ff ff       	jmpq   61c0 <_ZN3std3sys3pal4unix5locks11futex_mutex5Mutex14lock_contended17h7ecb1c37b84aea97E+0x70>
    6247:	66 0f 1f 84 00 00 00 	nopw   0x0(%rax,%rax,1)
    624e:	00 00 

0000000000006250 <_ZN3std3sys3pal4unix5locks12futex_rwlock6RwLock14read_contended17h09532f7c21399cfeE>:
    6250:	55                   	push   %rbp
    6251:	41 57                	push   %r15
    6253:	41 56                	push   %r14
    6255:	41 54                	push   %r12
    6257:	53                   	push   %rbx
    6258:	48 83 ec 40          	sub    $0x40,%rsp
    625c:	48 89 fb             	mov    %rdi,%rbx
    625f:	8b 07                	mov    (%rdi),%eax
    6261:	3d ff ff ff 3f       	cmp    $0x3fffffff,%eax
    6266:	75 1c                	jne    6284 <_ZN3std3sys3pal4unix5locks12futex_rwlock6RwLock14read_contended17h09532f7c21399cfeE+0x34>
    6268:	b9 9d ff ff ff       	mov    $0xffffff9d,%ecx
    626d:	0f 1f 00             	nopl   (%rax)
    6270:	f3 90                	pause  
    6272:	8b 03                	mov    (%rbx),%eax
    6274:	3d ff ff ff 3f       	cmp    $0x3fffffff,%eax
    6279:	75 09                	jne    6284 <_ZN3std3sys3pal4unix5locks12futex_rwlock6RwLock14read_contended17h09532f7c21399cfeE+0x34>
    627b:	8d 51 01             	lea    0x1(%rcx),%edx
    627e:	85 c9                	test   %ecx,%ecx
    6280:	89 d1                	mov    %edx,%ecx
    6282:	75 ec                	jne    6270 <_ZN3std3sys3pal4unix5locks12futex_rwlock6RwLock14read_contended17h09532f7c21399cfeE+0x20>
    6284:	4c 8d 74 24 18       	lea    0x18(%rsp),%r14
    6289:	4c 8b 3d 90 0a 05 00 	mov    0x50a90(%rip),%r15        # 56d20 <syscall@GLIBC_2.2.5>
    6290:	4c 8b 25 c1 07 05 00 	mov    0x507c1(%rip),%r12        # 56a58 <__errno_location@GLIBC_2.2.5>
    6297:	eb 14                	jmp    62ad <_ZN3std3sys3pal4unix5locks12futex_rwlock6RwLock14read_contended17h09532f7c21399cfeE+0x5d>
    6299:	0f 1f 80 00 00 00 00 	nopl   0x0(%rax)
    62a0:	8d 48 01             	lea    0x1(%rax),%ecx
    62a3:	f0 0f b1 0b          	lock cmpxchg %ecx,(%rbx)
    62a7:	0f 84 b0 00 00 00    	je     635d <_ZN3std3sys3pal4unix5locks12futex_rwlock6RwLock14read_contended17h09532f7c21399cfeE+0x10d>
    62ad:	89 c1                	mov    %eax,%ecx
    62af:	81 e1 ff ff ff 3f    	and    $0x3fffffff,%ecx
    62b5:	3d ff ff ff 3f       	cmp    $0x3fffffff,%eax
    62ba:	77 08                	ja     62c4 <_ZN3std3sys3pal4unix5locks12futex_rwlock6RwLock14read_contended17h09532f7c21399cfeE+0x74>
    62bc:	81 f9 fe ff ff 3f    	cmp    $0x3ffffffe,%ecx
    62c2:	72 dc                	jb     62a0 <_ZN3std3sys3pal4unix5locks12futex_rwlock6RwLock14read_contended17h09532f7c21399cfeE+0x50>
    62c4:	81 f9 fe ff ff 3f    	cmp    $0x3ffffffe,%ecx
    62ca:	0f 84 9a 00 00 00    	je     636a <_ZN3std3sys3pal4unix5locks12futex_rwlock6RwLock14read_contended17h09532f7c21399cfeE+0x11a>
    62d0:	89 c5                	mov    %eax,%ebp
    62d2:	81 cd 00 00 00 40    	or     $0x40000000,%ebp
    62d8:	a9 00 00 00 40       	test   $0x40000000,%eax
    62dd:	75 06                	jne    62e5 <_ZN3std3sys3pal4unix5locks12futex_rwlock6RwLock14read_contended17h09532f7c21399cfeE+0x95>
    62df:	f0 0f b1 2b          	lock cmpxchg %ebp,(%rbx)
    62e3:	75 c8                	jne    62ad <_ZN3std3sys3pal4unix5locks12futex_rwlock6RwLock14read_contended17h09532f7c21399cfeE+0x5d>
    62e5:	48 c7 44 24 10 00 00 	movq   $0x0,0x10(%rsp)
    62ec:	00 00 
    62ee:	66 90                	xchg   %ax,%ax
    62f0:	8b 03                	mov    (%rbx),%eax
    62f2:	39 e8                	cmp    %ebp,%eax
    62f4:	75 37                	jne    632d <_ZN3std3sys3pal4unix5locks12futex_rwlock6RwLock14read_contended17h09532f7c21399cfeE+0xdd>
    62f6:	4c 8b 44 24 10       	mov    0x10(%rsp),%r8
    62fb:	4d 85 c0             	test   %r8,%r8
    62fe:	4d 0f 45 c6          	cmovne %r14,%r8
    6302:	c7 04 24 ff ff ff ff 	movl   $0xffffffff,(%rsp)
    6309:	bf ca 00 00 00       	mov    $0xca,%edi
    630e:	48 89 de             	mov    %rbx,%rsi
    6311:	ba 89 00 00 00       	mov    $0x89,%edx
    6316:	89 e9                	mov    %ebp,%ecx
    6318:	45 31 c9             	xor    %r9d,%r9d
    631b:	31 c0                	xor    %eax,%eax
    631d:	41 ff d7             	callq  *%r15
    6320:	48 85 c0             	test   %rax,%rax
    6323:	79 08                	jns    632d <_ZN3std3sys3pal4unix5locks12futex_rwlock6RwLock14read_contended17h09532f7c21399cfeE+0xdd>
    6325:	41 ff d4             	callq  *%r12
    6328:	83 38 04             	cmpl   $0x4,(%rax)
    632b:	74 c3                	je     62f0 <_ZN3std3sys3pal4unix5locks12futex_rwlock6RwLock14read_contended17h09532f7c21399cfeE+0xa0>
    632d:	8b 03                	mov    (%rbx),%eax
    632f:	3d ff ff ff 3f       	cmp    $0x3fffffff,%eax
    6334:	0f 85 73 ff ff ff    	jne    62ad <_ZN3std3sys3pal4unix5locks12futex_rwlock6RwLock14read_contended17h09532f7c21399cfeE+0x5d>
    633a:	b9 9d ff ff ff       	mov    $0xffffff9d,%ecx
    633f:	90                   	nop
    6340:	f3 90                	pause  
    6342:	8b 03                	mov    (%rbx),%eax
    6344:	8d 51 01             	lea    0x1(%rcx),%edx
    6347:	3d ff ff ff 3f       	cmp    $0x3fffffff,%eax
    634c:	0f 85 5b ff ff ff    	jne    62ad <_ZN3std3sys3pal4unix5locks12futex_rwlock6RwLock14read_contended17h09532f7c21399cfeE+0x5d>
    6352:	85 c9                	test   %ecx,%ecx
    6354:	89 d1                	mov    %edx,%ecx
    6356:	75 e8                	jne    6340 <_ZN3std3sys3pal4unix5locks12futex_rwlock6RwLock14read_contended17h09532f7c21399cfeE+0xf0>
    6358:	e9 50 ff ff ff       	jmpq   62ad <_ZN3std3sys3pal4unix5locks12futex_rwlock6RwLock14read_contended17h09532f7c21399cfeE+0x5d>
    635d:	48 83 c4 40          	add    $0x40,%rsp
    6361:	5b                   	pop    %rbx
    6362:	41 5c                	pop    %r12
    6364:	41 5e                	pop    %r14
    6366:	41 5f                	pop    %r15
    6368:	5d                   	pop    %rbp
    6369:	c3                   	retq   
    636a:	48 8d 05 57 f0 04 00 	lea    0x4f057(%rip),%rax        # 553c8 <__do_global_dtors_aux_fini_array_entry+0xfd0>
    6371:	48 89 44 24 10       	mov    %rax,0x10(%rsp)
    6376:	48 c7 44 24 18 01 00 	movq   $0x1,0x18(%rsp)
    637d:	00 00 
    637f:	48 8d 05 aa 04 04 00 	lea    0x404aa(%rip),%rax        # 46830 <_fini+0x237c>
    6386:	48 89 44 24 20       	mov    %rax,0x20(%rsp)
    638b:	0f 57 c0             	xorps  %xmm0,%xmm0
    638e:	0f 11 44 24 28       	movups %xmm0,0x28(%rsp)
    6393:	48 8d 35 3e f0 04 00 	lea    0x4f03e(%rip),%rsi        # 553d8 <__do_global_dtors_aux_fini_array_entry+0xfe0>
    639a:	48 8d 7c 24 10       	lea    0x10(%rsp),%rdi
    639f:	ff 15 43 0c 05 00    	callq  *0x50c43(%rip)        # 56fe8 <_GLOBAL_OFFSET_TABLE_+0x640>
    63a5:	66 2e 0f 1f 84 00 00 	nopw   %cs:0x0(%rax,%rax,1)
    63ac:	00 00 00 
    63af:	90                   	nop

00000000000063b0 <_ZN3std3sys3pal4unix5locks12futex_rwlock6RwLock22wake_writer_or_readers17h3810e90f6f37e241E>:
    63b0:	53                   	push   %rbx
    63b1:	f7 c6 ff ff ff 3f    	test   $0x3fffffff,%esi
    63b7:	0f 85 ab 00 00 00    	jne    6468 <_ZN3std3sys3pal4unix5locks12futex_rwlock6RwLock22wake_writer_or_readers17h3810e90f6f37e241E+0xb8>
    63bd:	48 89 fb             	mov    %rdi,%rbx
    63c0:	81 fe 00 00 00 80    	cmp    $0x80000000,%esi
    63c6:	75 32                	jne    63fa <_ZN3std3sys3pal4unix5locks12futex_rwlock6RwLock22wake_writer_or_readers17h3810e90f6f37e241E+0x4a>
    63c8:	31 c9                	xor    %ecx,%ecx
    63ca:	b8 00 00 00 80       	mov    $0x80000000,%eax
    63cf:	f0 0f b1 0b          	lock cmpxchg %ecx,(%rbx)
    63d3:	75 23                	jne    63f8 <_ZN3std3sys3pal4unix5locks12futex_rwlock6RwLock22wake_writer_or_readers17h3810e90f6f37e241E+0x48>
    63d5:	f0 ff 43 04          	lock incl 0x4(%rbx)
    63d9:	48 83 c3 04          	add    $0x4,%rbx
    63dd:	bf ca 00 00 00       	mov    $0xca,%edi
    63e2:	48 89 de             	mov    %rbx,%rsi
    63e5:	ba 81 00 00 00       	mov    $0x81,%edx
    63ea:	b9 01 00 00 00       	mov    $0x1,%ecx
    63ef:	31 c0                	xor    %eax,%eax
    63f1:	5b                   	pop    %rbx
    63f2:	ff 25 28 09 05 00    	jmpq   *0x50928(%rip)        # 56d20 <syscall@GLIBC_2.2.5>
    63f8:	89 c6                	mov    %eax,%esi
    63fa:	81 fe 00 00 00 c0    	cmp    $0xc0000000,%esi
    6400:	74 30                	je     6432 <_ZN3std3sys3pal4unix5locks12futex_rwlock6RwLock22wake_writer_or_readers17h3810e90f6f37e241E+0x82>
    6402:	81 fe 00 00 00 40    	cmp    $0x40000000,%esi
    6408:	75 5c                	jne    6466 <_ZN3std3sys3pal4unix5locks12futex_rwlock6RwLock22wake_writer_or_readers17h3810e90f6f37e241E+0xb6>
    640a:	31 c9                	xor    %ecx,%ecx
    640c:	b8 00 00 00 40       	mov    $0x40000000,%eax
    6411:	f0 0f b1 0b          	lock cmpxchg %ecx,(%rbx)
    6415:	75 4f                	jne    6466 <_ZN3std3sys3pal4unix5locks12futex_rwlock6RwLock22wake_writer_or_readers17h3810e90f6f37e241E+0xb6>
    6417:	bf ca 00 00 00       	mov    $0xca,%edi
    641c:	48 89 de             	mov    %rbx,%rsi
    641f:	ba 81 00 00 00       	mov    $0x81,%edx
    6424:	b9 ff ff ff 7f       	mov    $0x7fffffff,%ecx
    6429:	31 c0                	xor    %eax,%eax
    642b:	5b                   	pop    %rbx
    642c:	ff 25 ee 08 05 00    	jmpq   *0x508ee(%rip)        # 56d20 <syscall@GLIBC_2.2.5>
    6432:	b9 00 00 00 40       	mov    $0x40000000,%ecx
    6437:	b8 00 00 00 c0       	mov    $0xc0000000,%eax
    643c:	f0 0f b1 0b          	lock cmpxchg %ecx,(%rbx)
    6440:	75 24                	jne    6466 <_ZN3std3sys3pal4unix5locks12futex_rwlock6RwLock22wake_writer_or_readers17h3810e90f6f37e241E+0xb6>
    6442:	48 8d 73 04          	lea    0x4(%rbx),%rsi
    6446:	f0 ff 43 04          	lock incl 0x4(%rbx)
    644a:	bf ca 00 00 00       	mov    $0xca,%edi
    644f:	ba 81 00 00 00       	mov    $0x81,%edx
    6454:	b9 01 00 00 00       	mov    $0x1,%ecx
    6459:	31 c0                	xor    %eax,%eax
    645b:	ff 15 bf 08 05 00    	callq  *0x508bf(%rip)        # 56d20 <syscall@GLIBC_2.2.5>
    6461:	48 85 c0             	test   %rax,%rax
    6464:	7e a4                	jle    640a <_ZN3std3sys3pal4unix5locks12futex_rwlock6RwLock22wake_writer_or_readers17h3810e90f6f37e241E+0x5a>
    6466:	5b                   	pop    %rbx
    6467:	c3                   	retq   
    6468:	48 8d 3d ba 17 04 00 	lea    0x417ba(%rip),%rdi        # 47c29 <str.5+0x1029>
    646f:	48 8d 15 7a ef 04 00 	lea    0x4ef7a(%rip),%rdx        # 553f0 <__do_global_dtors_aux_fini_array_entry+0xff8>
    6476:	be 24 00 00 00       	mov    $0x24,%esi
    647b:	ff 15 3f 0b 05 00    	callq  *0x50b3f(%rip)        # 56fc0 <_GLOBAL_OFFSET_TABLE_+0x618>
    6481:	66 2e 0f 1f 84 00 00 	nopw   %cs:0x0(%rax,%rax,1)
    6488:	00 00 00 
    648b:	0f 1f 44 00 00       	nopl   0x0(%rax,%rax,1)

0000000000006490 <_ZN3std10sys_common4once5futex4Once4call17h6af9cd87f78efdacE>:
    6490:	55                   	push   %rbp
    6491:	41 57                	push   %r15
    6493:	41 56                	push   %r14
    6495:	41 55                	push   %r13
    6497:	41 54                	push   %r12
    6499:	53                   	push   %rbx
    649a:	48 83 ec 48          	sub    $0x48,%rsp
    649e:	48 89 7c 24 10       	mov    %rdi,0x10(%rsp)
    64a3:	8b 05 ff 0b 05 00    	mov    0x50bff(%rip),%eax        # 570a8 <_ZN3std2io5stdio6STDOUT17haf171d711039eaf9E+0x38>
    64a9:	4c 8d 7c 24 20       	lea    0x20(%rsp),%r15
    64ae:	4c 8d 25 5b 02 04 00 	lea    0x4025b(%rip),%r12        # 46710 <_fini+0x225c>
    64b5:	bd 02 00 00 00       	mov    $0x2,%ebp
    64ba:	4c 8d 35 e7 0b 05 00 	lea    0x50be7(%rip),%r14        # 570a8 <_ZN3std2io5stdio6STDOUT17haf171d711039eaf9E+0x38>
    64c1:	48 8b 1d 58 08 05 00 	mov    0x50858(%rip),%rbx        # 56d20 <syscall@GLIBC_2.2.5>
    64c8:	4c 8b 2d 89 05 05 00 	mov    0x50589(%rip),%r13        # 56a58 <__errno_location@GLIBC_2.2.5>
    64cf:	eb 15                	jmp    64e6 <_ZN3std10sys_common4once5futex4Once4call17h6af9cd87f78efdacE+0x56>
    64d1:	66 66 66 66 66 66 2e 	data16 data16 data16 data16 data16 nopw %cs:0x0(%rax,%rax,1)
    64d8:	0f 1f 84 00 00 00 00 
    64df:	00 
    64e0:	8b 05 c2 0b 05 00    	mov    0x50bc2(%rip),%eax        # 570a8 <_ZN3std2io5stdio6STDOUT17haf171d711039eaf9E+0x38>
    64e6:	83 f8 04             	cmp    $0x4,%eax
    64e9:	0f 87 17 01 00 00    	ja     6606 <_ZN3std10sys_common4once5futex4Once4call17h6af9cd87f78efdacE+0x176>
    64ef:	89 c1                	mov    %eax,%ecx
    64f1:	49 63 0c 8c          	movslq (%r12,%rcx,4),%rcx
    64f5:	4c 01 e1             	add    %r12,%rcx
    64f8:	ff e1                	jmpq   *%rcx
    64fa:	f0 0f b1 2d a6 0b 05 	lock cmpxchg %ebp,0x50ba6(%rip)        # 570a8 <_ZN3std2io5stdio6STDOUT17haf171d711039eaf9E+0x38>
    6501:	00 
    6502:	75 e2                	jne    64e6 <_ZN3std10sys_common4once5futex4Once4call17h6af9cd87f78efdacE+0x56>
    6504:	eb 77                	jmp    657d <_ZN3std10sys_common4once5futex4Once4call17h6af9cd87f78efdacE+0xed>
    6506:	66 2e 0f 1f 84 00 00 	nopw   %cs:0x0(%rax,%rax,1)
    650d:	00 00 00 
    6510:	b8 02 00 00 00       	mov    $0x2,%eax
    6515:	b9 03 00 00 00       	mov    $0x3,%ecx
    651a:	f0 0f b1 0d 86 0b 05 	lock cmpxchg %ecx,0x50b86(%rip)        # 570a8 <_ZN3std2io5stdio6STDOUT17haf171d711039eaf9E+0x38>
    6521:	00 
    6522:	75 c2                	jne    64e6 <_ZN3std10sys_common4once5futex4Once4call17h6af9cd87f78efdacE+0x56>
    6524:	48 c7 44 24 18 00 00 	movq   $0x0,0x18(%rsp)
    652b:	00 00 
    652d:	0f 1f 00             	nopl   (%rax)
    6530:	8b 05 72 0b 05 00    	mov    0x50b72(%rip),%eax        # 570a8 <_ZN3std2io5stdio6STDOUT17haf171d711039eaf9E+0x38>
    6536:	83 f8 03             	cmp    $0x3,%eax
    6539:	75 a5                	jne    64e0 <_ZN3std10sys_common4once5futex4Once4call17h6af9cd87f78efdacE+0x50>
    653b:	4c 8b 44 24 18       	mov    0x18(%rsp),%r8
    6540:	4d 85 c0             	test   %r8,%r8
    6543:	4d 0f 45 c7          	cmovne %r15,%r8
    6547:	c7 04 24 ff ff ff ff 	movl   $0xffffffff,(%rsp)
    654e:	bf ca 00 00 00       	mov    $0xca,%edi
    6553:	4c 89 f6             	mov    %r14,%rsi
    6556:	ba 89 00 00 00       	mov    $0x89,%edx
    655b:	b9 03 00 00 00       	mov    $0x3,%ecx
    6560:	45 31 c9             	xor    %r9d,%r9d
    6563:	31 c0                	xor    %eax,%eax
    6565:	ff d3                	callq  *%rbx
    6567:	48 85 c0             	test   %rax,%rax
    656a:	0f 89 70 ff ff ff    	jns    64e0 <_ZN3std10sys_common4once5futex4Once4call17h6af9cd87f78efdacE+0x50>
    6570:	41 ff d5             	callq  *%r13
    6573:	83 38 04             	cmpl   $0x4,(%rax)
    6576:	74 b8                	je     6530 <_ZN3std10sys_common4once5futex4Once4call17h6af9cd87f78efdacE+0xa0>
    6578:	e9 63 ff ff ff       	jmpq   64e0 <_ZN3std10sys_common4once5futex4Once4call17h6af9cd87f78efdacE+0x50>
    657d:	48 8b 44 24 10       	mov    0x10(%rsp),%rax
    6582:	48 8b 10             	mov    (%rax),%rdx
    6585:	48 8b 0a             	mov    (%rdx),%rcx
    6588:	48 8b 42 08          	mov    0x8(%rdx),%rax
    658c:	48 c7 02 00 00 00 00 	movq   $0x0,(%rdx)
    6593:	48 85 c9             	test   %rcx,%rcx
    6596:	0f 84 a3 00 00 00    	je     663f <_ZN3std10sys_common4once5futex4Once4call17h6af9cd87f78efdacE+0x1af>
    659c:	c6 01 01             	movb   $0x1,(%rcx)
    659f:	0f 57 c0             	xorps  %xmm0,%xmm0
    65a2:	0f 11 00             	movups %xmm0,(%rax)
    65a5:	48 c7 40 10 00 00 00 	movq   $0x0,0x10(%rax)
    65ac:	00 
    65ad:	48 c7 40 18 01 00 00 	movq   $0x1,0x18(%rax)
    65b4:	00 
    65b5:	48 c7 40 20 00 00 00 	movq   $0x0,0x20(%rax)
    65bc:	00 
    65bd:	c6 40 28 00          	movb   $0x0,0x28(%rax)
    65c1:	48 c7 40 30 00 00 00 	movq   $0x0,0x30(%rax)
    65c8:	00 
    65c9:	b8 04 00 00 00       	mov    $0x4,%eax
    65ce:	87 05 d4 0a 05 00    	xchg   %eax,0x50ad4(%rip)        # 570a8 <_ZN3std2io5stdio6STDOUT17haf171d711039eaf9E+0x38>
    65d4:	83 f8 03             	cmp    $0x3,%eax
    65d7:	75 1e                	jne    65f7 <_ZN3std10sys_common4once5futex4Once4call17h6af9cd87f78efdacE+0x167>
    65d9:	48 8d 35 c8 0a 05 00 	lea    0x50ac8(%rip),%rsi        # 570a8 <_ZN3std2io5stdio6STDOUT17haf171d711039eaf9E+0x38>
    65e0:	bf ca 00 00 00       	mov    $0xca,%edi
    65e5:	ba 81 00 00 00       	mov    $0x81,%edx
    65ea:	b9 ff ff ff 7f       	mov    $0x7fffffff,%ecx
    65ef:	31 c0                	xor    %eax,%eax
    65f1:	ff 15 29 07 05 00    	callq  *0x50729(%rip)        # 56d20 <syscall@GLIBC_2.2.5>
    65f7:	48 83 c4 48          	add    $0x48,%rsp
    65fb:	5b                   	pop    %rbx
    65fc:	41 5c                	pop    %r12
    65fe:	41 5d                	pop    %r13
    6600:	41 5e                	pop    %r14
    6602:	41 5f                	pop    %r15
    6604:	5d                   	pop    %rbp
    6605:	c3                   	retq   
    6606:	48 8d 05 6b ee 04 00 	lea    0x4ee6b(%rip),%rax        # 55478 <__do_global_dtors_aux_fini_array_entry+0x1080>
    660d:	48 89 44 24 18       	mov    %rax,0x18(%rsp)
    6612:	48 c7 44 24 20 01 00 	movq   $0x1,0x20(%rsp)
    6619:	00 00 
    661b:	48 8d 44 24 08       	lea    0x8(%rsp),%rax
    6620:	48 89 44 24 28       	mov    %rax,0x28(%rsp)
    6625:	0f 57 c0             	xorps  %xmm0,%xmm0
    6628:	0f 11 44 24 30       	movups %xmm0,0x30(%rsp)
    662d:	48 8d 35 9c e7 04 00 	lea    0x4e79c(%rip),%rsi        # 54dd0 <__do_global_dtors_aux_fini_array_entry+0x9d8>
    6634:	48 8d 7c 24 18       	lea    0x18(%rsp),%rdi
    6639:	ff 15 a9 09 05 00    	callq  *0x509a9(%rip)        # 56fe8 <_GLOBAL_OFFSET_TABLE_+0x640>
    663f:	48 8d 3d ea 01 04 00 	lea    0x401ea(%rip),%rdi        # 46830 <_fini+0x237c>
    6646:	48 8d 15 9b e7 04 00 	lea    0x4e79b(%rip),%rdx        # 54de8 <__do_global_dtors_aux_fini_array_entry+0x9f0>
    664d:	be 2b 00 00 00       	mov    $0x2b,%esi
    6652:	ff 15 68 09 05 00    	callq  *0x50968(%rip)        # 56fc0 <_GLOBAL_OFFSET_TABLE_+0x618>
    6658:	0f 0b                	ud2    
    665a:	48 89 c3             	mov    %rax,%rbx
    665d:	b8 01 00 00 00       	mov    $0x1,%eax
    6662:	87 05 40 0a 05 00    	xchg   %eax,0x50a40(%rip)        # 570a8 <_ZN3std2io5stdio6STDOUT17haf171d711039eaf9E+0x38>
    6668:	83 f8 03             	cmp    $0x3,%eax
    666b:	75 1e                	jne    668b <_ZN3std10sys_common4once5futex4Once4call17h6af9cd87f78efdacE+0x1fb>
    666d:	48 8d 35 34 0a 05 00 	lea    0x50a34(%rip),%rsi        # 570a8 <_ZN3std2io5stdio6STDOUT17haf171d711039eaf9E+0x38>
    6674:	bf ca 00 00 00       	mov    $0xca,%edi
    6679:	ba 81 00 00 00       	mov    $0x81,%edx
    667e:	b9 ff ff ff 7f       	mov    $0x7fffffff,%ecx
    6683:	31 c0                	xor    %eax,%eax
    6685:	ff 15 95 06 05 00    	callq  *0x50695(%rip)        # 56d20 <syscall@GLIBC_2.2.5>
    668b:	48 89 df             	mov    %rbx,%rdi
    668e:	e8 ed e9 ff ff       	callq  5080 <_Unwind_Resume@plt>
    6693:	66 2e 0f 1f 84 00 00 	nopw   %cs:0x0(%rax,%rax,1)
    669a:	00 00 00 
    669d:	0f 1f 00             	nopl   (%rax)

00000000000066a0 <_ZN3std10sys_common4once5futex4Once4call17h933beac33986c30aE>:
    66a0:	55                   	push   %rbp
    66a1:	41 57                	push   %r15
    66a3:	41 56                	push   %r14
    66a5:	41 55                	push   %r13
    66a7:	41 54                	push   %r12
    66a9:	53                   	push   %rbx
    66aa:	48 83 ec 58          	sub    $0x58,%rsp
    66ae:	48 89 7c 24 50       	mov    %rdi,0x50(%rsp)
    66b3:	8b 05 ab 09 05 00    	mov    0x509ab(%rip),%eax        # 57064 <_ZN3std2rt7cleanup7CLEANUP17heefd07eb09cf46f5E>
    66b9:	4c 8d 7c 24 20       	lea    0x20(%rsp),%r15
    66be:	4c 8d 25 5f 00 04 00 	lea    0x4005f(%rip),%r12        # 46724 <_fini+0x2270>
    66c5:	41 bd 03 00 00 00    	mov    $0x3,%r13d
    66cb:	4c 8d 35 92 09 05 00 	lea    0x50992(%rip),%r14        # 57064 <_ZN3std2rt7cleanup7CLEANUP17heefd07eb09cf46f5E>
    66d2:	48 8b 1d 47 06 05 00 	mov    0x50647(%rip),%rbx        # 56d20 <syscall@GLIBC_2.2.5>
    66d9:	48 8b 2d 78 03 05 00 	mov    0x50378(%rip),%rbp        # 56a58 <__errno_location@GLIBC_2.2.5>
    66e0:	eb 14                	jmp    66f6 <_ZN3std10sys_common4once5futex4Once4call17h933beac33986c30aE+0x56>
    66e2:	66 66 66 66 66 2e 0f 	data16 data16 data16 data16 nopw %cs:0x0(%rax,%rax,1)
    66e9:	1f 84 00 00 00 00 00 
    66f0:	8b 05 6e 09 05 00    	mov    0x5096e(%rip),%eax        # 57064 <_ZN3std2rt7cleanup7CLEANUP17heefd07eb09cf46f5E>
    66f6:	83 f8 04             	cmp    $0x4,%eax
    66f9:	0f 87 d1 02 00 00    	ja     69d0 <_ZN3std10sys_common4once5futex4Once4call17h933beac33986c30aE+0x330>
    66ff:	89 c0                	mov    %eax,%eax
    6701:	49 63 04 84          	movslq (%r12,%rax,4),%rax
    6705:	4c 01 e0             	add    %r12,%rax
    6708:	ff e0                	jmpq   *%rax
    670a:	31 c0                	xor    %eax,%eax
    670c:	b9 02 00 00 00       	mov    $0x2,%ecx
    6711:	f0 0f b1 0d 4b 09 05 	lock cmpxchg %ecx,0x5094b(%rip)        # 57064 <_ZN3std2rt7cleanup7CLEANUP17heefd07eb09cf46f5E>
    6718:	00 
    6719:	75 db                	jne    66f6 <_ZN3std10sys_common4once5futex4Once4call17h933beac33986c30aE+0x56>
    671b:	eb 6f                	jmp    678c <_ZN3std10sys_common4once5futex4Once4call17h933beac33986c30aE+0xec>
    671d:	0f 1f 00             	nopl   (%rax)
    6720:	b8 02 00 00 00       	mov    $0x2,%eax
    6725:	f0 44 0f b1 2d 36 09 	lock cmpxchg %r13d,0x50936(%rip)        # 57064 <_ZN3std2rt7cleanup7CLEANUP17heefd07eb09cf46f5E>
    672c:	05 00 
    672e:	75 c6                	jne    66f6 <_ZN3std10sys_common4once5futex4Once4call17h933beac33986c30aE+0x56>
    6730:	48 c7 44 24 18 00 00 	movq   $0x0,0x18(%rsp)
    6737:	00 00 
    6739:	0f 1f 80 00 00 00 00 	nopl   0x0(%rax)
    6740:	8b 05 1e 09 05 00    	mov    0x5091e(%rip),%eax        # 57064 <_ZN3std2rt7cleanup7CLEANUP17heefd07eb09cf46f5E>
    6746:	83 f8 03             	cmp    $0x3,%eax
    6749:	75 a5                	jne    66f0 <_ZN3std10sys_common4once5futex4Once4call17h933beac33986c30aE+0x50>
    674b:	4c 8b 44 24 18       	mov    0x18(%rsp),%r8
    6750:	4d 85 c0             	test   %r8,%r8
    6753:	4d 0f 45 c7          	cmovne %r15,%r8
    6757:	c7 04 24 ff ff ff ff 	movl   $0xffffffff,(%rsp)
    675e:	bf ca 00 00 00       	mov    $0xca,%edi
    6763:	4c 89 f6             	mov    %r14,%rsi
    6766:	ba 89 00 00 00       	mov    $0x89,%edx
    676b:	b9 03 00 00 00       	mov    $0x3,%ecx
    6770:	45 31 c9             	xor    %r9d,%r9d
    6773:	31 c0                	xor    %eax,%eax
    6775:	ff d3                	callq  *%rbx
    6777:	48 85 c0             	test   %rax,%rax
    677a:	0f 89 70 ff ff ff    	jns    66f0 <_ZN3std10sys_common4once5futex4Once4call17h933beac33986c30aE+0x50>
    6780:	ff d5                	callq  *%rbp
    6782:	83 38 04             	cmpl   $0x4,(%rax)
    6785:	74 b9                	je     6740 <_ZN3std10sys_common4once5futex4Once4call17h933beac33986c30aE+0xa0>
    6787:	e9 64 ff ff ff       	jmpq   66f0 <_ZN3std10sys_common4once5futex4Once4call17h933beac33986c30aE+0x50>
    678c:	48 8b 44 24 50       	mov    0x50(%rsp),%rax
    6791:	48 8b 00             	mov    (%rax),%rax
    6794:	80 38 00             	cmpb   $0x0,(%rax)
    6797:	c6 00 00             	movb   $0x0,(%rax)
    679a:	0f 84 69 02 00 00    	je     6a09 <_ZN3std10sys_common4once5futex4Once4call17h933beac33986c30aE+0x369>
    67a0:	c6 44 24 0f 00       	movb   $0x0,0xf(%rsp)
    67a5:	8b 05 fd 08 05 00    	mov    0x508fd(%rip),%eax        # 570a8 <_ZN3std2io5stdio6STDOUT17haf171d711039eaf9E+0x38>
    67ab:	83 f8 04             	cmp    $0x4,%eax
    67ae:	74 0a                	je     67ba <_ZN3std10sys_common4once5futex4Once4call17h933beac33986c30aE+0x11a>
    67b0:	48 8d 7c 24 0f       	lea    0xf(%rsp),%rdi
    67b5:	e8 26 f6 ff ff       	callq  5de0 <_ZN3std4sync9once_lock17OnceLock$LT$T$GT$10initialize17hc533de6efe990238E>
    67ba:	80 7c 24 0f 00       	cmpb   $0x0,0xf(%rsp)
    67bf:	0f 85 53 01 00 00    	jne    6918 <_ZN3std10sys_common4once5futex4Once4call17h933beac33986c30aE+0x278>
    67c5:	48 8b 1d a4 08 05 00 	mov    0x508a4(%rip),%rbx        # 57070 <_ZN3std2io5stdio6STDOUT17haf171d711039eaf9E>
    67cc:	66 66 66 64 48 8b 04 	data16 data16 data16 mov %fs:0x0,%rax
    67d3:	25 00 00 00 00 
    67d8:	48 89 c1             	mov    %rax,%rcx
    67db:	48 8d 80 e1 ff ff ff 	lea    -0x1f(%rax),%rax
    67e2:	48 39 c3             	cmp    %rax,%rbx
    67e5:	75 28                	jne    680f <_ZN3std10sys_common4once5futex4Once4call17h933beac33986c30aE+0x16f>
    67e7:	8b 15 b7 08 05 00    	mov    0x508b7(%rip),%edx        # 570a4 <_ZN3std2io5stdio6STDOUT17haf171d711039eaf9E+0x34>
    67ed:	ff c2                	inc    %edx
    67ef:	75 44                	jne    6835 <_ZN3std10sys_common4once5futex4Once4call17h933beac33986c30aE+0x195>
    67f1:	48 8d 3d 91 0d 04 00 	lea    0x40d91(%rip),%rdi        # 47589 <str.5+0x989>
    67f8:	48 8d 15 01 e6 04 00 	lea    0x4e601(%rip),%rdx        # 54e00 <__do_global_dtors_aux_fini_array_entry+0xa08>
    67ff:	be 26 00 00 00       	mov    $0x26,%esi
    6804:	ff 15 ee 06 05 00    	callq  *0x506ee(%rip)        # 56ef8 <_GLOBAL_OFFSET_TABLE_+0x550>
    680a:	e9 22 02 00 00       	jmpq   6a31 <_ZN3std10sys_common4once5futex4Once4call17h933beac33986c30aE+0x391>
    680f:	ba 01 00 00 00       	mov    $0x1,%edx
    6814:	31 c0                	xor    %eax,%eax
    6816:	f0 0f b1 15 82 08 05 	lock cmpxchg %edx,0x50882(%rip)        # 570a0 <_ZN3std2io5stdio6STDOUT17haf171d711039eaf9E+0x30>
    681d:	00 
    681e:	0f 85 f4 00 00 00    	jne    6918 <_ZN3std10sys_common4once5futex4Once4call17h933beac33986c30aE+0x278>
    6824:	48 89 c8             	mov    %rcx,%rax
    6827:	48 8d 81 e1 ff ff ff 	lea    -0x1f(%rcx),%rax
    682e:	48 89 05 3b 08 05 00 	mov    %rax,0x5083b(%rip)        # 57070 <_ZN3std2io5stdio6STDOUT17haf171d711039eaf9E>
    6835:	89 15 69 08 05 00    	mov    %edx,0x50869(%rip)        # 570a4 <_ZN3std2io5stdio6STDOUT17haf171d711039eaf9E+0x34>
    683b:	48 c7 44 24 18 00 00 	movq   $0x0,0x18(%rsp)
    6842:	00 00 
    6844:	48 c7 44 24 20 01 00 	movq   $0x1,0x20(%rsp)
    684b:	00 00 
    684d:	48 c7 44 24 28 00 00 	movq   $0x0,0x28(%rsp)
    6854:	00 00 
    6856:	c6 44 24 30 00       	movb   $0x0,0x30(%rsp)
    685b:	48 83 3d 15 08 05 00 	cmpq   $0x0,0x50815(%rip)        # 57078 <_ZN3std2io5stdio6STDOUT17haf171d711039eaf9E+0x8>
    6862:	00 
    6863:	0f 85 bb 01 00 00    	jne    6a24 <_ZN3std10sys_common4once5futex4Once4call17h933beac33986c30aE+0x384>
    6869:	48 c7 05 04 08 05 00 	movq   $0xffffffffffffffff,0x50804(%rip)        # 57078 <_ZN3std2io5stdio6STDOUT17haf171d711039eaf9E+0x8>
    6870:	ff ff ff ff 
    6874:	80 3d 1d 08 05 00 00 	cmpb   $0x0,0x5081d(%rip)        # 57098 <_ZN3std2io5stdio6STDOUT17haf171d711039eaf9E+0x28>
    687b:	75 20                	jne    689d <_ZN3std10sys_common4once5futex4Once4call17h933beac33986c30aE+0x1fd>
    687d:	48 8d 3d fc 07 05 00 	lea    0x507fc(%rip),%rdi        # 57080 <_ZN3std2io5stdio6STDOUT17haf171d711039eaf9E+0x10>
    6884:	e8 c7 8e 01 00       	callq  1f750 <_ZN3std2io8buffered9bufwriter18BufWriter$LT$W$GT$9flush_buf17h17e31731bcce412eE>
    6889:	48 89 44 24 48       	mov    %rax,0x48(%rsp)
    688e:	48 85 c0             	test   %rax,%rax
    6891:	74 0a                	je     689d <_ZN3std10sys_common4once5futex4Once4call17h933beac33986c30aE+0x1fd>
    6893:	48 8d 7c 24 48       	lea    0x48(%rsp),%rdi
    6898:	e8 93 2b 00 00       	callq  9430 <_ZN4core3ptr42drop_in_place$LT$std..io..error..Error$GT$17ha18fc3e7daa57219E>
    689d:	48 8b 35 dc 07 05 00 	mov    0x507dc(%rip),%rsi        # 57080 <_ZN3std2io5stdio6STDOUT17haf171d711039eaf9E+0x10>
    68a4:	48 85 f6             	test   %rsi,%rsi
    68a7:	74 12                	je     68bb <_ZN3std10sys_common4once5futex4Once4call17h933beac33986c30aE+0x21b>
    68a9:	48 8b 3d d8 07 05 00 	mov    0x507d8(%rip),%rdi        # 57088 <_ZN3std2io5stdio6STDOUT17haf171d711039eaf9E+0x18>
    68b0:	ba 01 00 00 00       	mov    $0x1,%edx
    68b5:	ff 15 85 03 05 00    	callq  *0x50385(%rip)        # 56c40 <_GLOBAL_OFFSET_TABLE_+0x298>
    68bb:	0f 10 44 24 18       	movups 0x18(%rsp),%xmm0
    68c0:	0f 10 4c 24 28       	movups 0x28(%rsp),%xmm1
    68c5:	0f 11 0d c4 07 05 00 	movups %xmm1,0x507c4(%rip)        # 57090 <_ZN3std2io5stdio6STDOUT17haf171d711039eaf9E+0x20>
    68cc:	0f 11 05 ad 07 05 00 	movups %xmm0,0x507ad(%rip)        # 57080 <_ZN3std2io5stdio6STDOUT17haf171d711039eaf9E+0x10>
    68d3:	48 ff 05 9e 07 05 00 	incq   0x5079e(%rip)        # 57078 <_ZN3std2io5stdio6STDOUT17haf171d711039eaf9E+0x8>
    68da:	ff 0d c4 07 05 00    	decl   0x507c4(%rip)        # 570a4 <_ZN3std2io5stdio6STDOUT17haf171d711039eaf9E+0x34>
    68e0:	75 36                	jne    6918 <_ZN3std10sys_common4once5futex4Once4call17h933beac33986c30aE+0x278>
    68e2:	48 c7 05 83 07 05 00 	movq   $0x0,0x50783(%rip)        # 57070 <_ZN3std2io5stdio6STDOUT17haf171d711039eaf9E>
    68e9:	00 00 00 00 
    68ed:	31 c0                	xor    %eax,%eax
    68ef:	87 05 ab 07 05 00    	xchg   %eax,0x507ab(%rip)        # 570a0 <_ZN3std2io5stdio6STDOUT17haf171d711039eaf9E+0x30>
    68f5:	83 f8 02             	cmp    $0x2,%eax
    68f8:	75 1e                	jne    6918 <_ZN3std10sys_common4once5futex4Once4call17h933beac33986c30aE+0x278>
    68fa:	48 8d 35 9f 07 05 00 	lea    0x5079f(%rip),%rsi        # 570a0 <_ZN3std2io5stdio6STDOUT17haf171d711039eaf9E+0x30>
    6901:	bf ca 00 00 00       	mov    $0xca,%edi
    6906:	ba 81 00 00 00       	mov    $0x81,%edx
    690b:	b9 01 00 00 00       	mov    $0x1,%ecx
    6910:	31 c0                	xor    %eax,%eax
    6912:	ff 15 08 04 05 00    	callq  *0x50408(%rip)        # 56d20 <syscall@GLIBC_2.2.5>
    6918:	48 8b 1d f9 07 05 00 	mov    0x507f9(%rip),%rbx        # 57118 <_ZN3std3sys3pal4unix14stack_overflow3imp13MAIN_ALTSTACK17h9fa73bdbf9eaf196E.0>
    691f:	48 85 db             	test   %rbx,%rbx
    6922:	74 51                	je     6975 <_ZN3std10sys_common4once5futex4Once4call17h933beac33986c30aE+0x2d5>
    6924:	48 c7 44 24 18 00 00 	movq   $0x0,0x18(%rsp)
    692b:	00 00 
    692d:	c7 44 24 20 02 00 00 	movl   $0x2,0x20(%rsp)
    6934:	00 
    6935:	48 c7 44 24 28 00 20 	movq   $0x2000,0x28(%rsp)
    693c:	00 00 
    693e:	48 8d 7c 24 18       	lea    0x18(%rsp),%rdi
    6943:	31 f6                	xor    %esi,%esi
    6945:	ff 15 5d 06 05 00    	callq  *0x5065d(%rip)        # 56fa8 <sigaltstack@GLIBC_2.2.5>
    694b:	4c 8b 35 76 05 05 00 	mov    0x50576(%rip),%r14        # 56ec8 <sysconf@GLIBC_2.2.5>
    6952:	bf 1e 00 00 00       	mov    $0x1e,%edi
    6957:	41 ff d6             	callq  *%r14
    695a:	48 29 c3             	sub    %rax,%rbx
    695d:	bf 1e 00 00 00       	mov    $0x1e,%edi
    6962:	41 ff d6             	callq  *%r14
    6965:	48 8d b0 00 20 00 00 	lea    0x2000(%rax),%rsi
    696c:	48 89 df             	mov    %rbx,%rdi
    696f:	ff 15 9b 04 05 00    	callq  *0x5049b(%rip)        # 56e10 <munmap@GLIBC_2.2.5>
    6975:	b8 04 00 00 00       	mov    $0x4,%eax
    697a:	87 05 e4 06 05 00    	xchg   %eax,0x506e4(%rip)        # 57064 <_ZN3std2rt7cleanup7CLEANUP17heefd07eb09cf46f5E>
    6980:	83 f8 03             	cmp    $0x3,%eax
    6983:	75 1e                	jne    69a3 <_ZN3std10sys_common4once5futex4Once4call17h933beac33986c30aE+0x303>
    6985:	48 8d 35 d8 06 05 00 	lea    0x506d8(%rip),%rsi        # 57064 <_ZN3std2rt7cleanup7CLEANUP17heefd07eb09cf46f5E>
    698c:	bf ca 00 00 00       	mov    $0xca,%edi
    6991:	ba 81 00 00 00       	mov    $0x81,%edx
    6996:	b9 ff ff ff 7f       	mov    $0x7fffffff,%ecx
    699b:	31 c0                	xor    %eax,%eax
    699d:	ff 15 7d 03 05 00    	callq  *0x5037d(%rip)        # 56d20 <syscall@GLIBC_2.2.5>
    69a3:	48 83 c4 58          	add    $0x58,%rsp
    69a7:	5b                   	pop    %rbx
    69a8:	41 5c                	pop    %r12
    69aa:	41 5d                	pop    %r13
    69ac:	41 5e                	pop    %r14
    69ae:	41 5f                	pop    %r15
    69b0:	5d                   	pop    %rbp
    69b1:	c3                   	retq   
    69b2:	48 8d 05 af ea 04 00 	lea    0x4eaaf(%rip),%rax        # 55468 <__do_global_dtors_aux_fini_array_entry+0x1070>
    69b9:	48 89 44 24 18       	mov    %rax,0x18(%rsp)
    69be:	48 c7 44 24 20 01 00 	movq   $0x1,0x20(%rsp)
    69c5:	00 00 
    69c7:	48 8d 05 62 fe 03 00 	lea    0x3fe62(%rip),%rax        # 46830 <_fini+0x237c>
    69ce:	eb 1a                	jmp    69ea <_ZN3std10sys_common4once5futex4Once4call17h933beac33986c30aE+0x34a>
    69d0:	48 8d 05 a1 ea 04 00 	lea    0x4eaa1(%rip),%rax        # 55478 <__do_global_dtors_aux_fini_array_entry+0x1080>
    69d7:	48 89 44 24 18       	mov    %rax,0x18(%rsp)
    69dc:	48 c7 44 24 20 01 00 	movq   $0x1,0x20(%rsp)
    69e3:	00 00 
    69e5:	48 8d 44 24 10       	lea    0x10(%rsp),%rax
    69ea:	48 89 44 24 28       	mov    %rax,0x28(%rsp)
    69ef:	0f 57 c0             	xorps  %xmm0,%xmm0
    69f2:	0f 11 44 24 30       	movups %xmm0,0x30(%rsp)
    69f7:	48 8d 35 6a e0 04 00 	lea    0x4e06a(%rip),%rsi        # 54a68 <__do_global_dtors_aux_fini_array_entry+0x670>
    69fe:	48 8d 7c 24 18       	lea    0x18(%rsp),%rdi
    6a03:	ff 15 df 05 05 00    	callq  *0x505df(%rip)        # 56fe8 <_GLOBAL_OFFSET_TABLE_+0x640>
    6a09:	48 8d 3d 20 fe 03 00 	lea    0x3fe20(%rip),%rdi        # 46830 <_fini+0x237c>
    6a10:	48 8d 15 a1 e3 04 00 	lea    0x4e3a1(%rip),%rdx        # 54db8 <__do_global_dtors_aux_fini_array_entry+0x9c0>
    6a17:	be 2b 00 00 00       	mov    $0x2b,%esi
    6a1c:	ff 15 9e 05 05 00    	callq  *0x5059e(%rip)        # 56fc0 <_GLOBAL_OFFSET_TABLE_+0x618>
    6a22:	eb 0d                	jmp    6a31 <_ZN3std10sys_common4once5futex4Once4call17h933beac33986c30aE+0x391>
    6a24:	48 8d 3d 3d e1 04 00 	lea    0x4e13d(%rip),%rdi        # 54b68 <__do_global_dtors_aux_fini_array_entry+0x770>
    6a2b:	ff 15 ef 03 05 00    	callq  *0x503ef(%rip)        # 56e20 <_GLOBAL_OFFSET_TABLE_+0x478>
    6a31:	0f 0b                	ud2    
    6a33:	48 89 c3             	mov    %rax,%rbx
    6a36:	48 8b 35 43 06 05 00 	mov    0x50643(%rip),%rsi        # 57080 <_ZN3std2io5stdio6STDOUT17haf171d711039eaf9E+0x10>
    6a3d:	48 85 f6             	test   %rsi,%rsi
    6a40:	74 12                	je     6a54 <_ZN3std10sys_common4once5futex4Once4call17h933beac33986c30aE+0x3b4>
    6a42:	48 8b 3d 3f 06 05 00 	mov    0x5063f(%rip),%rdi        # 57088 <_ZN3std2io5stdio6STDOUT17haf171d711039eaf9E+0x18>
    6a49:	ba 01 00 00 00       	mov    $0x1,%edx
    6a4e:	ff 15 ec 01 05 00    	callq  *0x501ec(%rip)        # 56c40 <_GLOBAL_OFFSET_TABLE_+0x298>
    6a54:	0f 10 44 24 18       	movups 0x18(%rsp),%xmm0
    6a59:	0f 10 4c 24 28       	movups 0x28(%rsp),%xmm1
    6a5e:	0f 11 0d 2b 06 05 00 	movups %xmm1,0x5062b(%rip)        # 57090 <_ZN3std2io5stdio6STDOUT17haf171d711039eaf9E+0x20>
    6a65:	0f 11 05 14 06 05 00 	movups %xmm0,0x50614(%rip)        # 57080 <_ZN3std2io5stdio6STDOUT17haf171d711039eaf9E+0x10>
    6a6c:	48 ff 05 05 06 05 00 	incq   0x50605(%rip)        # 57078 <_ZN3std2io5stdio6STDOUT17haf171d711039eaf9E+0x8>
    6a73:	eb 3b                	jmp    6ab0 <_ZN3std10sys_common4once5futex4Once4call17h933beac33986c30aE+0x410>
    6a75:	48 89 c3             	mov    %rax,%rbx
    6a78:	48 8d 7c 24 18       	lea    0x18(%rsp),%rdi
    6a7d:	e8 ce 8c 01 00       	callq  1f750 <_ZN3std2io8buffered9bufwriter18BufWriter$LT$W$GT$9flush_buf17h17e31731bcce412eE>
    6a82:	48 89 44 24 48       	mov    %rax,0x48(%rsp)
    6a87:	48 85 c0             	test   %rax,%rax
    6a8a:	74 0a                	je     6a96 <_ZN3std10sys_common4once5futex4Once4call17h933beac33986c30aE+0x3f6>
    6a8c:	48 8d 7c 24 48       	lea    0x48(%rsp),%rdi
    6a91:	e8 9a 29 00 00       	callq  9430 <_ZN4core3ptr42drop_in_place$LT$std..io..error..Error$GT$17ha18fc3e7daa57219E>
    6a96:	48 8b 74 24 18       	mov    0x18(%rsp),%rsi
    6a9b:	48 85 f6             	test   %rsi,%rsi
    6a9e:	74 10                	je     6ab0 <_ZN3std10sys_common4once5futex4Once4call17h933beac33986c30aE+0x410>
    6aa0:	48 8b 7c 24 20       	mov    0x20(%rsp),%rdi
    6aa5:	ba 01 00 00 00       	mov    $0x1,%edx
    6aaa:	ff 15 90 01 05 00    	callq  *0x50190(%rip)        # 56c40 <_GLOBAL_OFFSET_TABLE_+0x298>
    6ab0:	ff 0d ee 05 05 00    	decl   0x505ee(%rip)        # 570a4 <_ZN3std2io5stdio6STDOUT17haf171d711039eaf9E+0x34>
    6ab6:	75 5b                	jne    6b13 <_ZN3std10sys_common4once5futex4Once4call17h933beac33986c30aE+0x473>
    6ab8:	48 c7 05 ad 05 05 00 	movq   $0x0,0x505ad(%rip)        # 57070 <_ZN3std2io5stdio6STDOUT17haf171d711039eaf9E>
    6abf:	00 00 00 00 
    6ac3:	31 c0                	xor    %eax,%eax
    6ac5:	87 05 d5 05 05 00    	xchg   %eax,0x505d5(%rip)        # 570a0 <_ZN3std2io5stdio6STDOUT17haf171d711039eaf9E+0x30>
    6acb:	83 f8 02             	cmp    $0x2,%eax
    6ace:	75 43                	jne    6b13 <_ZN3std10sys_common4once5futex4Once4call17h933beac33986c30aE+0x473>
    6ad0:	48 8d 35 c9 05 05 00 	lea    0x505c9(%rip),%rsi        # 570a0 <_ZN3std2io5stdio6STDOUT17haf171d711039eaf9E+0x30>
    6ad7:	bf ca 00 00 00       	mov    $0xca,%edi
    6adc:	ba 81 00 00 00       	mov    $0x81,%edx
    6ae1:	b9 01 00 00 00       	mov    $0x1,%ecx
    6ae6:	31 c0                	xor    %eax,%eax
    6ae8:	ff 15 32 02 05 00    	callq  *0x50232(%rip)        # 56d20 <syscall@GLIBC_2.2.5>
    6aee:	eb 23                	jmp    6b13 <_ZN3std10sys_common4once5futex4Once4call17h933beac33986c30aE+0x473>
    6af0:	48 8b 74 24 18       	mov    0x18(%rsp),%rsi
    6af5:	48 85 f6             	test   %rsi,%rsi
    6af8:	74 10                	je     6b0a <_ZN3std10sys_common4once5futex4Once4call17h933beac33986c30aE+0x46a>
    6afa:	48 8b 7c 24 20       	mov    0x20(%rsp),%rdi
    6aff:	ba 01 00 00 00       	mov    $0x1,%edx
    6b04:	ff 15 36 01 05 00    	callq  *0x50136(%rip)        # 56c40 <_GLOBAL_OFFSET_TABLE_+0x298>
    6b0a:	ff 15 78 03 05 00    	callq  *0x50378(%rip)        # 56e88 <_GLOBAL_OFFSET_TABLE_+0x4e0>
    6b10:	48 89 c3             	mov    %rax,%rbx
    6b13:	b8 01 00 00 00       	mov    $0x1,%eax
    6b18:	87 05 46 05 05 00    	xchg   %eax,0x50546(%rip)        # 57064 <_ZN3std2rt7cleanup7CLEANUP17heefd07eb09cf46f5E>
    6b1e:	83 f8 03             	cmp    $0x3,%eax
    6b21:	75 1e                	jne    6b41 <_ZN3std10sys_common4once5futex4Once4call17h933beac33986c30aE+0x4a1>
    6b23:	48 8d 35 3a 05 05 00 	lea    0x5053a(%rip),%rsi        # 57064 <_ZN3std2rt7cleanup7CLEANUP17heefd07eb09cf46f5E>
    6b2a:	bf ca 00 00 00       	mov    $0xca,%edi
    6b2f:	ba 81 00 00 00       	mov    $0x81,%edx
    6b34:	b9 ff ff ff 7f       	mov    $0x7fffffff,%ecx
    6b39:	31 c0                	xor    %eax,%eax
    6b3b:	ff 15 df 01 05 00    	callq  *0x501df(%rip)        # 56d20 <syscall@GLIBC_2.2.5>
    6b41:	48 89 df             	mov    %rbx,%rdi
    6b44:	e8 37 e5 ff ff       	callq  5080 <_Unwind_Resume@plt>
    6b49:	0f 1f 80 00 00 00 00 	nopl   0x0(%rax)

0000000000006b50 <_ZN5alloc7raw_vec19RawVec$LT$T$C$A$GT$7reserve21do_reserve_and_handle17hdff598252479006bE>:
    6b50:	41 56                	push   %r14
    6b52:	53                   	push   %rbx
    6b53:	48 83 ec 38          	sub    $0x38,%rsp
    6b57:	48 01 d6             	add    %rdx,%rsi
    6b5a:	0f 82 9a 00 00 00    	jb     6bfa <_ZN5alloc7raw_vec19RawVec$LT$T$C$A$GT$7reserve21do_reserve_and_handle17hdff598252479006bE+0xaa>
    6b60:	48 89 fb             	mov    %rdi,%rbx
    6b63:	48 8b 07             	mov    (%rdi),%rax
    6b66:	48 8d 0c 00          	lea    (%rax,%rax,1),%rcx
    6b6a:	48 39 f1             	cmp    %rsi,%rcx
    6b6d:	48 0f 47 f1          	cmova  %rcx,%rsi
    6b71:	48 83 fe 09          	cmp    $0x9,%rsi
    6b75:	41 be 08 00 00 00    	mov    $0x8,%r14d
    6b7b:	4c 0f 43 f6          	cmovae %rsi,%r14
    6b7f:	4c 89 f6             	mov    %r14,%rsi
    6b82:	48 f7 d6             	not    %rsi
    6b85:	48 c1 ee 3f          	shr    $0x3f,%rsi
    6b89:	48 85 c0             	test   %rax,%rax
    6b8c:	74 19                	je     6ba7 <_ZN5alloc7raw_vec19RawVec$LT$T$C$A$GT$7reserve21do_reserve_and_handle17hdff598252479006bE+0x57>
    6b8e:	48 8b 4b 08          	mov    0x8(%rbx),%rcx
    6b92:	48 89 4c 24 08       	mov    %rcx,0x8(%rsp)
    6b97:	48 c7 44 24 10 01 00 	movq   $0x1,0x10(%rsp)
    6b9e:	00 00 
    6ba0:	48 89 44 24 18       	mov    %rax,0x18(%rsp)
    6ba5:	eb 09                	jmp    6bb0 <_ZN5alloc7raw_vec19RawVec$LT$T$C$A$GT$7reserve21do_reserve_and_handle17hdff598252479006bE+0x60>
    6ba7:	48 c7 44 24 10 00 00 	movq   $0x0,0x10(%rsp)
    6bae:	00 00 
    6bb0:	48 8d 7c 24 20       	lea    0x20(%rsp),%rdi
    6bb5:	48 8d 4c 24 08       	lea    0x8(%rsp),%rcx
    6bba:	4c 89 f2             	mov    %r14,%rdx
    6bbd:	e8 be ca 02 00       	callq  33680 <_ZN5alloc7raw_vec11finish_grow17hb231862533d2091bE>
    6bc2:	48 83 7c 24 20 00    	cmpq   $0x0,0x20(%rsp)
    6bc8:	48 8b 7c 24 28       	mov    0x28(%rsp),%rdi
    6bcd:	74 17                	je     6be6 <_ZN5alloc7raw_vec19RawVec$LT$T$C$A$GT$7reserve21do_reserve_and_handle17hdff598252479006bE+0x96>
    6bcf:	48 b8 01 00 00 00 00 	movabs $0x8000000000000001,%rax
    6bd6:	00 00 80 
    6bd9:	48 39 c7             	cmp    %rax,%rdi
    6bdc:	75 17                	jne    6bf5 <_ZN5alloc7raw_vec19RawVec$LT$T$C$A$GT$7reserve21do_reserve_and_handle17hdff598252479006bE+0xa5>
    6bde:	48 83 c4 38          	add    $0x38,%rsp
    6be2:	5b                   	pop    %rbx
    6be3:	41 5e                	pop    %r14
    6be5:	c3                   	retq   
    6be6:	48 89 7b 08          	mov    %rdi,0x8(%rbx)
    6bea:	4c 89 33             	mov    %r14,(%rbx)
    6bed:	48 83 c4 38          	add    $0x38,%rsp
    6bf1:	5b                   	pop    %rbx
    6bf2:	41 5e                	pop    %r14
    6bf4:	c3                   	retq   
    6bf5:	48 85 ff             	test   %rdi,%rdi
    6bf8:	75 06                	jne    6c00 <_ZN5alloc7raw_vec19RawVec$LT$T$C$A$GT$7reserve21do_reserve_and_handle17hdff598252479006bE+0xb0>
    6bfa:	ff 15 20 fe 04 00    	callq  *0x4fe20(%rip)        # 56a20 <_GLOBAL_OFFSET_TABLE_+0x78>
    6c00:	48 8b 74 24 30       	mov    0x30(%rsp),%rsi
    6c05:	ff 15 05 fe 04 00    	callq  *0x4fe05(%rip)        # 56a10 <_GLOBAL_OFFSET_TABLE_+0x68>
    6c0b:	0f 1f 44 00 00       	nopl   0x0(%rax,%rax,1)

0000000000006c10 <_ZN4core9panicking13assert_failed17he3feba11f462bb84E>:
    6c10:	48 83 ec 18          	sub    $0x18,%rsp
    6c14:	49 89 f1             	mov    %rsi,%r9
    6c17:	48 89 7c 24 08       	mov    %rdi,0x8(%rsp)
    6c1c:	48 8d 05 9d 02 04 00 	lea    0x4029d(%rip),%rax        # 46ec0 <str.5+0x2c0>
    6c23:	48 89 44 24 10       	mov    %rax,0x10(%rsp)
    6c28:	48 8d 05 a9 e9 04 00 	lea    0x4e9a9(%rip),%rax        # 555d8 <__do_global_dtors_aux_fini_array_entry+0x11e0>
    6c2f:	48 89 04 24          	mov    %rax,(%rsp)
    6c33:	48 8d 15 06 e9 04 00 	lea    0x4e906(%rip),%rdx        # 55540 <__do_global_dtors_aux_fini_array_entry+0x1148>
    6c3a:	48 8d 74 24 08       	lea    0x8(%rsp),%rsi
    6c3f:	48 8d 4c 24 10       	lea    0x10(%rsp),%rcx
    6c44:	bf 01 00 00 00       	mov    $0x1,%edi
    6c49:	49 89 d0             	mov    %rdx,%r8
    6c4c:	ff 15 c6 fd 04 00    	callq  *0x4fdc6(%rip)        # 56a18 <_GLOBAL_OFFSET_TABLE_+0x70>
    6c52:	66 2e 0f 1f 84 00 00 	nopw   %cs:0x0(%rax,%rax,1)
    6c59:	00 00 00 
    6c5c:	0f 1f 40 00          	nopl   0x0(%rax)

0000000000006c60 <_ZN5alloc7raw_vec19RawVec$LT$T$C$A$GT$7reserve21do_reserve_and_handle17hc5145043896d6941E>:
    6c60:	41 56                	push   %r14
    6c62:	53                   	push   %rbx
    6c63:	48 83 ec 38          	sub    $0x38,%rsp
    6c67:	48 01 d6             	add    %rdx,%rsi
    6c6a:	0f 82 9a 00 00 00    	jb     6d0a <_ZN5alloc7raw_vec19RawVec$LT$T$C$A$GT$7reserve21do_reserve_and_handle17hc5145043896d6941E+0xaa>
    6c70:	48 89 fb             	mov    %rdi,%rbx
    6c73:	48 8b 07             	mov    (%rdi),%rax
    6c76:	48 8d 0c 00          	lea    (%rax,%rax,1),%rcx
    6c7a:	48 39 f1             	cmp    %rsi,%rcx
    6c7d:	48 0f 47 f1          	cmova  %rcx,%rsi
    6c81:	48 83 fe 09          	cmp    $0x9,%rsi
    6c85:	41 be 08 00 00 00    	mov    $0x8,%r14d
    6c8b:	4c 0f 43 f6          	cmovae %rsi,%r14
    6c8f:	4c 89 f6             	mov    %r14,%rsi
    6c92:	48 f7 d6             	not    %rsi
    6c95:	48 c1 ee 3f          	shr    $0x3f,%rsi
    6c99:	48 85 c0             	test   %rax,%rax
    6c9c:	74 19                	je     6cb7 <_ZN5alloc7raw_vec19RawVec$LT$T$C$A$GT$7reserve21do_reserve_and_handle17hc5145043896d6941E+0x57>
    6c9e:	48 8b 4b 08          	mov    0x8(%rbx),%rcx
    6ca2:	48 89 4c 24 08       	mov    %rcx,0x8(%rsp)
    6ca7:	48 c7 44 24 10 01 00 	movq   $0x1,0x10(%rsp)
    6cae:	00 00 
    6cb0:	48 89 44 24 18       	mov    %rax,0x18(%rsp)
    6cb5:	eb 09                	jmp    6cc0 <_ZN5alloc7raw_vec19RawVec$LT$T$C$A$GT$7reserve21do_reserve_and_handle17hc5145043896d6941E+0x60>
    6cb7:	48 c7 44 24 10 00 00 	movq   $0x0,0x10(%rsp)
    6cbe:	00 00 
    6cc0:	48 8d 7c 24 20       	lea    0x20(%rsp),%rdi
    6cc5:	48 8d 4c 24 08       	lea    0x8(%rsp),%rcx
    6cca:	4c 89 f2             	mov    %r14,%rdx
    6ccd:	e8 6e 87 03 00       	callq  3f440 <_ZN5alloc7raw_vec11finish_grow17hf0ed2989be4aca77E>
    6cd2:	48 83 7c 24 20 00    	cmpq   $0x0,0x20(%rsp)
    6cd8:	48 8b 7c 24 28       	mov    0x28(%rsp),%rdi
    6cdd:	74 17                	je     6cf6 <_ZN5alloc7raw_vec19RawVec$LT$T$C$A$GT$7reserve21do_reserve_and_handle17hc5145043896d6941E+0x96>
    6cdf:	48 b8 01 00 00 00 00 	movabs $0x8000000000000001,%rax
    6ce6:	00 00 80 
    6ce9:	48 39 c7             	cmp    %rax,%rdi
    6cec:	75 17                	jne    6d05 <_ZN5alloc7raw_vec19RawVec$LT$T$C$A$GT$7reserve21do_reserve_and_handle17hc5145043896d6941E+0xa5>
    6cee:	48 83 c4 38          	add    $0x38,%rsp
    6cf2:	5b                   	pop    %rbx
    6cf3:	41 5e                	pop    %r14
    6cf5:	c3                   	retq   
    6cf6:	48 89 7b 08          	mov    %rdi,0x8(%rbx)
    6cfa:	4c 89 33             	mov    %r14,(%rbx)
    6cfd:	48 83 c4 38          	add    $0x38,%rsp
    6d01:	5b                   	pop    %rbx
    6d02:	41 5e                	pop    %r14
    6d04:	c3                   	retq   
    6d05:	48 85 ff             	test   %rdi,%rdi
    6d08:	75 06                	jne    6d10 <_ZN5alloc7raw_vec19RawVec$LT$T$C$A$GT$7reserve21do_reserve_and_handle17hc5145043896d6941E+0xb0>
    6d0a:	ff 15 10 fd 04 00    	callq  *0x4fd10(%rip)        # 56a20 <_GLOBAL_OFFSET_TABLE_+0x78>
    6d10:	48 8b 74 24 30       	mov    0x30(%rsp),%rsi
    6d15:	ff 15 f5 fc 04 00    	callq  *0x4fcf5(%rip)        # 56a10 <_GLOBAL_OFFSET_TABLE_+0x68>
    6d1b:	0f 1f 44 00 00       	nopl   0x0(%rax,%rax,1)

0000000000006d20 <_ZN5alloc5alloc18handle_alloc_error17h0d048a0e346fe2eeE>:
    6d20:	50                   	push   %rax
    6d21:	48 89 f8             	mov    %rdi,%rax
    6d24:	48 89 f7             	mov    %rsi,%rdi
    6d27:	48 89 c6             	mov    %rax,%rsi
    6d2a:	ff 15 60 00 05 00    	callq  *0x50060(%rip)        # 56d90 <_GLOBAL_OFFSET_TABLE_+0x3e8>

0000000000006d30 <_ZN4core4cell22panic_already_borrowed17h1b99b06ff2381674E>:
    6d30:	48 83 ec 48          	sub    $0x48,%rsp
    6d34:	48 89 fe             	mov    %rdi,%rsi
    6d37:	48 8d 44 24 07       	lea    0x7(%rsp),%rax
    6d3c:	48 89 44 24 08       	mov    %rax,0x8(%rsp)
    6d41:	48 8d 05 c8 92 03 00 	lea    0x392c8(%rip),%rax        # 40010 <_ZN63_$LT$core..cell..BorrowMutError$u20$as$u20$core..fmt..Debug$GT$3fmt17h921f46ca4cec6a67E>
    6d48:	48 89 44 24 10       	mov    %rax,0x10(%rsp)
    6d4d:	48 8d 05 a4 f5 04 00 	lea    0x4f5a4(%rip),%rax        # 562f8 <__do_global_dtors_aux_fini_array_entry+0x1f00>
    6d54:	48 89 44 24 18       	mov    %rax,0x18(%rsp)
    6d59:	48 c7 44 24 20 01 00 	movq   $0x1,0x20(%rsp)
    6d60:	00 00 
    6d62:	48 c7 44 24 38 00 00 	movq   $0x0,0x38(%rsp)
    6d69:	00 00 
    6d6b:	48 8d 44 24 08       	lea    0x8(%rsp),%rax
    6d70:	48 89 44 24 28       	mov    %rax,0x28(%rsp)
    6d75:	48 c7 44 24 30 01 00 	movq   $0x1,0x30(%rsp)
    6d7c:	00 00 
    6d7e:	48 8d 7c 24 18       	lea    0x18(%rsp),%rdi
    6d83:	ff 15 5f 02 05 00    	callq  *0x5025f(%rip)        # 56fe8 <_GLOBAL_OFFSET_TABLE_+0x640>
    6d89:	0f 1f 80 00 00 00 00 	nopl   0x0(%rax)

0000000000006d90 <_ZN4core6option13expect_failed17hc1e53c3ba552246aE>:
    6d90:	48 83 ec 58          	sub    $0x58,%rsp
    6d94:	48 89 7c 24 08       	mov    %rdi,0x8(%rsp)
    6d99:	48 89 74 24 10       	mov    %rsi,0x10(%rsp)
    6d9e:	48 8d 44 24 08       	lea    0x8(%rsp),%rax
    6da3:	48 89 44 24 18       	mov    %rax,0x18(%rsp)
    6da8:	48 8d 05 f1 d3 03 00 	lea    0x3d3f1(%rip),%rax        # 441a0 <_ZN44_$LT$$RF$T$u20$as$u20$core..fmt..Display$GT$3fmt17h6b0322a280d09378E>
    6daf:	48 89 44 24 20       	mov    %rax,0x20(%rsp)
    6db4:	48 8d 05 4d f5 04 00 	lea    0x4f54d(%rip),%rax        # 56308 <__do_global_dtors_aux_fini_array_entry+0x1f10>
    6dbb:	48 89 44 24 28       	mov    %rax,0x28(%rsp)
    6dc0:	48 c7 44 24 30 01 00 	movq   $0x1,0x30(%rsp)
    6dc7:	00 00 
    6dc9:	48 c7 44 24 48 00 00 	movq   $0x0,0x48(%rsp)
    6dd0:	00 00 
    6dd2:	48 8d 44 24 18       	lea    0x18(%rsp),%rax
    6dd7:	48 89 44 24 38       	mov    %rax,0x38(%rsp)
    6ddc:	48 c7 44 24 40 01 00 	movq   $0x1,0x40(%rsp)
    6de3:	00 00 
    6de5:	48 8d 7c 24 28       	lea    0x28(%rsp),%rdi
    6dea:	48 89 d6             	mov    %rdx,%rsi
    6ded:	ff 15 f5 01 05 00    	callq  *0x501f5(%rip)        # 56fe8 <_GLOBAL_OFFSET_TABLE_+0x640>
    6df3:	66 2e 0f 1f 84 00 00 	nopw   %cs:0x0(%rax,%rax,1)
    6dfa:	00 00 00 
    6dfd:	0f 1f 00             	nopl   (%rax)

0000000000006e00 <_ZN4core9panicking9panic_fmt17hc956e908d0260c2fE>:
    6e00:	48 83 ec 28          	sub    $0x28,%rsp
    6e04:	48 8d 05 5d 31 04 00 	lea    0x4315d(%rip),%rax        # 49f68 <_ZN11miniz_oxide7inflate4core20REVERSED_BITS_LOOKUP17h44112242f6847035E+0x1428>
    6e0b:	48 89 04 24          	mov    %rax,(%rsp)
    6e0f:	48 8d 05 32 f5 04 00 	lea    0x4f532(%rip),%rax        # 56348 <__do_global_dtors_aux_fini_array_entry+0x1f50>
    6e16:	48 89 44 24 08       	mov    %rax,0x8(%rsp)
    6e1b:	48 89 7c 24 10       	mov    %rdi,0x10(%rsp)
    6e20:	48 89 74 24 18       	mov    %rsi,0x18(%rsp)
    6e25:	66 c7 44 24 20 01 00 	movw   $0x1,0x20(%rsp)
    6e2c:	48 89 e7             	mov    %rsp,%rdi
    6e2f:	ff 15 e3 fd 04 00    	callq  *0x4fde3(%rip)        # 56c18 <_GLOBAL_OFFSET_TABLE_+0x270>
    6e35:	66 2e 0f 1f 84 00 00 	nopw   %cs:0x0(%rax,%rax,1)
    6e3c:	00 00 00 
    6e3f:	90                   	nop

0000000000006e40 <_ZN4core9panicking18panic_nounwind_fmt17h0c9aea03ac91bc33E>:
    6e40:	48 83 ec 68          	sub    $0x68,%rsp
    6e44:	0f 10 07             	movups (%rdi),%xmm0
    6e47:	0f 10 4f 10          	movups 0x10(%rdi),%xmm1
    6e4b:	0f 10 57 20          	movups 0x20(%rdi),%xmm2
    6e4f:	0f 29 54 24 50       	movaps %xmm2,0x50(%rsp)
    6e54:	0f 29 4c 24 40       	movaps %xmm1,0x40(%rsp)
    6e59:	0f 29 44 24 30       	movaps %xmm0,0x30(%rsp)
    6e5e:	48 8d 05 03 31 04 00 	lea    0x43103(%rip),%rax        # 49f68 <_ZN11miniz_oxide7inflate4core20REVERSED_BITS_LOOKUP17h44112242f6847035E+0x1428>
    6e65:	48 89 44 24 08       	mov    %rax,0x8(%rsp)
    6e6a:	48 8d 05 d7 f4 04 00 	lea    0x4f4d7(%rip),%rax        # 56348 <__do_global_dtors_aux_fini_array_entry+0x1f50>
    6e71:	48 89 44 24 10       	mov    %rax,0x10(%rsp)
    6e76:	48 8d 44 24 30       	lea    0x30(%rsp),%rax
    6e7b:	48 89 44 24 18       	mov    %rax,0x18(%rsp)
    6e80:	48 89 54 24 20       	mov    %rdx,0x20(%rsp)
    6e85:	c6 44 24 28 00       	movb   $0x0,0x28(%rsp)
    6e8a:	40 88 74 24 29       	mov    %sil,0x29(%rsp)
    6e8f:	48 8d 7c 24 08       	lea    0x8(%rsp),%rdi
    6e94:	ff 15 7e fd 04 00    	callq  *0x4fd7e(%rip)        # 56c18 <_GLOBAL_OFFSET_TABLE_+0x270>
    6e9a:	0f 0b                	ud2    
    6e9c:	ff 15 0e fc 04 00    	callq  *0x4fc0e(%rip)        # 56ab0 <_GLOBAL_OFFSET_TABLE_+0x108>
    6ea2:	66 2e 0f 1f 84 00 00 	nopw   %cs:0x0(%rax,%rax,1)
    6ea9:	00 00 00 
    6eac:	0f 1f 40 00          	nopl   0x0(%rax)

0000000000006eb0 <_ZN4core9panicking5panic17hc9ef14243ed05cbcE>:
    6eb0:	48 83 ec 48          	sub    $0x48,%rsp
    6eb4:	48 89 7c 24 08       	mov    %rdi,0x8(%rsp)
    6eb9:	48 89 74 24 10       	mov    %rsi,0x10(%rsp)
    6ebe:	48 8d 44 24 08       	lea    0x8(%rsp),%rax
    6ec3:	48 89 44 24 18       	mov    %rax,0x18(%rsp)
    6ec8:	48 c7 44 24 20 01 00 	movq   $0x1,0x20(%rsp)
    6ecf:	00 00 
    6ed1:	48 8d 05 90 30 04 00 	lea    0x43090(%rip),%rax        # 49f68 <_ZN11miniz_oxide7inflate4core20REVERSED_BITS_LOOKUP17h44112242f6847035E+0x1428>
    6ed8:	48 89 44 24 28       	mov    %rax,0x28(%rsp)
    6edd:	0f 57 c0             	xorps  %xmm0,%xmm0
    6ee0:	0f 11 44 24 30       	movups %xmm0,0x30(%rsp)
    6ee5:	48 8d 7c 24 18       	lea    0x18(%rsp),%rdi
    6eea:	48 89 d6             	mov    %rdx,%rsi
    6eed:	ff 15 f5 00 05 00    	callq  *0x500f5(%rip)        # 56fe8 <_GLOBAL_OFFSET_TABLE_+0x640>
    6ef3:	66 2e 0f 1f 84 00 00 	nopw   %cs:0x0(%rax,%rax,1)
    6efa:	00 00 00 
    6efd:	0f 1f 00             	nopl   (%rax)

0000000000006f00 <_ZN4core9panicking14panic_nounwind17h6298320129024d63E>:
    6f00:	48 83 ec 48          	sub    $0x48,%rsp
    6f04:	48 89 7c 24 08       	mov    %rdi,0x8(%rsp)
    6f09:	48 89 74 24 10       	mov    %rsi,0x10(%rsp)
    6f0e:	48 8d 44 24 08       	lea    0x8(%rsp),%rax
    6f13:	48 89 44 24 18       	mov    %rax,0x18(%rsp)
    6f18:	48 c7 44 24 20 01 00 	movq   $0x1,0x20(%rsp)
    6f1f:	00 00 
    6f21:	48 8d 05 40 30 04 00 	lea    0x43040(%rip),%rax        # 49f68 <_ZN11miniz_oxide7inflate4core20REVERSED_BITS_LOOKUP17h44112242f6847035E+0x1428>
    6f28:	48 89 44 24 28       	mov    %rax,0x28(%rsp)
    6f2d:	0f 57 c0             	xorps  %xmm0,%xmm0
    6f30:	0f 11 44 24 30       	movups %xmm0,0x30(%rsp)
    6f35:	48 8d 15 2c f4 04 00 	lea    0x4f42c(%rip),%rdx        # 56368 <__do_global_dtors_aux_fini_array_entry+0x1f70>
    6f3c:	48 8d 7c 24 18       	lea    0x18(%rsp),%rdi
    6f41:	31 f6                	xor    %esi,%esi
    6f43:	ff 15 6f ff 04 00    	callq  *0x4ff6f(%rip)        # 56eb8 <_GLOBAL_OFFSET_TABLE_+0x510>
    6f49:	0f 1f 80 00 00 00 00 	nopl   0x0(%rax)

0000000000006f50 <_ZN4core9panicking26panic_nounwind_nobacktrace17h205c066708d47df9E>:
    6f50:	48 83 ec 48          	sub    $0x48,%rsp
    6f54:	48 89 7c 24 08       	mov    %rdi,0x8(%rsp)
    6f59:	48 89 74 24 10       	mov    %rsi,0x10(%rsp)
    6f5e:	48 8d 44 24 08       	lea    0x8(%rsp),%rax
    6f63:	48 89 44 24 18       	mov    %rax,0x18(%rsp)
    6f68:	48 c7 44 24 20 01 00 	movq   $0x1,0x20(%rsp)
    6f6f:	00 00 
    6f71:	48 8d 05 f0 2f 04 00 	lea    0x42ff0(%rip),%rax        # 49f68 <_ZN11miniz_oxide7inflate4core20REVERSED_BITS_LOOKUP17h44112242f6847035E+0x1428>
    6f78:	48 89 44 24 28       	mov    %rax,0x28(%rsp)
    6f7d:	0f 57 c0             	xorps  %xmm0,%xmm0
    6f80:	0f 11 44 24 30       	movups %xmm0,0x30(%rsp)
    6f85:	48 8d 15 f4 f3 04 00 	lea    0x4f3f4(%rip),%rdx        # 56380 <__do_global_dtors_aux_fini_array_entry+0x1f88>
    6f8c:	48 8d 7c 24 18       	lea    0x18(%rsp),%rdi
    6f91:	be 01 00 00 00       	mov    $0x1,%esi
    6f96:	ff 15 1c ff 04 00    	callq  *0x4ff1c(%rip)        # 56eb8 <_GLOBAL_OFFSET_TABLE_+0x510>
    6f9c:	0f 1f 40 00          	nopl   0x0(%rax)

0000000000006fa0 <_ZN4core9panicking18panic_bounds_check17h08f341524a959a98E>:
    6fa0:	48 83 ec 68          	sub    $0x68,%rsp
    6fa4:	48 89 7c 24 08       	mov    %rdi,0x8(%rsp)
    6fa9:	48 89 74 24 10       	mov    %rsi,0x10(%rsp)
    6fae:	48 8d 44 24 10       	lea    0x10(%rsp),%rax
    6fb3:	48 89 44 24 18       	mov    %rax,0x18(%rsp)
    6fb8:	48 8d 05 c1 d0 03 00 	lea    0x3d0c1(%rip),%rax        # 44080 <_ZN4core3fmt3num3imp52_$LT$impl$u20$core..fmt..Display$u20$for$u20$u64$GT$3fmt17h5ad2c9ee34d611f2E>
    6fbf:	48 89 44 24 20       	mov    %rax,0x20(%rsp)
    6fc4:	48 8d 4c 24 08       	lea    0x8(%rsp),%rcx
    6fc9:	48 89 4c 24 28       	mov    %rcx,0x28(%rsp)
    6fce:	48 89 44 24 30       	mov    %rax,0x30(%rsp)
    6fd3:	48 8d 05 be f3 04 00 	lea    0x4f3be(%rip),%rax        # 56398 <__do_global_dtors_aux_fini_array_entry+0x1fa0>
    6fda:	48 89 44 24 38       	mov    %rax,0x38(%rsp)
    6fdf:	48 c7 44 24 40 02 00 	movq   $0x2,0x40(%rsp)
    6fe6:	00 00 
    6fe8:	48 c7 44 24 58 00 00 	movq   $0x0,0x58(%rsp)
    6fef:	00 00 
    6ff1:	48 8d 44 24 18       	lea    0x18(%rsp),%rax
    6ff6:	48 89 44 24 48       	mov    %rax,0x48(%rsp)
    6ffb:	48 c7 44 24 50 02 00 	movq   $0x2,0x50(%rsp)
    7002:	00 00 
    7004:	48 8d 7c 24 38       	lea    0x38(%rsp),%rdi
    7009:	48 89 d6             	mov    %rdx,%rsi
    700c:	ff 15 d6 ff 04 00    	callq  *0x4ffd6(%rip)        # 56fe8 <_GLOBAL_OFFSET_TABLE_+0x640>
    7012:	66 2e 0f 1f 84 00 00 	nopw   %cs:0x0(%rax,%rax,1)
    7019:	00 00 00 
    701c:	0f 1f 40 00          	nopl   0x0(%rax)

0000000000007020 <_ZN4core9panicking36panic_misaligned_pointer_dereference17h45554719e57eb88aE>:
    7020:	48 81 ec d8 00 00 00 	sub    $0xd8,%rsp
    7027:	48 89 7c 24 08       	mov    %rdi,0x8(%rsp)
    702c:	48 89 74 24 10       	mov    %rsi,0x10(%rsp)
    7031:	48 8d 44 24 08       	lea    0x8(%rsp),%rax
    7036:	48 89 44 24 18       	mov    %rax,0x18(%rsp)
    703b:	48 8d 05 fe c9 03 00 	lea    0x3c9fe(%rip),%rax        # 43a40 <_ZN4core3fmt3num53_$LT$impl$u20$core..fmt..LowerHex$u20$for$u20$i64$GT$3fmt17hbca6fb7f000bd9d4E>
    7042:	48 89 44 24 20       	mov    %rax,0x20(%rsp)
    7047:	48 8d 4c 24 10       	lea    0x10(%rsp),%rcx
    704c:	48 89 4c 24 28       	mov    %rcx,0x28(%rsp)
    7051:	48 89 44 24 30       	mov    %rax,0x30(%rsp)
    7056:	48 c7 44 24 68 02 00 	movq   $0x2,0x68(%rsp)
    705d:	00 00 
    705f:	48 c7 44 24 78 02 00 	movq   $0x2,0x78(%rsp)
    7066:	00 00 
    7068:	48 c7 84 24 88 00 00 	movq   $0x0,0x88(%rsp)
    706f:	00 00 00 00 00 
    7074:	48 b8 20 00 00 00 04 	movabs $0x400000020,%rax
    707b:	00 00 00 
    707e:	48 89 84 24 90 00 00 	mov    %rax,0x90(%rsp)
    7085:	00 
    7086:	c6 84 24 98 00 00 00 	movb   $0x3,0x98(%rsp)
    708d:	03 
    708e:	48 c7 84 24 a0 00 00 	movq   $0x2,0xa0(%rsp)
    7095:	00 02 00 00 00 
    709a:	48 c7 84 24 b0 00 00 	movq   $0x2,0xb0(%rsp)
    70a1:	00 02 00 00 00 
    70a6:	48 c7 84 24 c0 00 00 	movq   $0x1,0xc0(%rsp)
    70ad:	00 01 00 00 00 
    70b2:	48 89 84 24 c8 00 00 	mov    %rax,0xc8(%rsp)
    70b9:	00 
    70ba:	c6 84 24 d0 00 00 00 	movb   $0x3,0xd0(%rsp)
    70c1:	03 
    70c2:	48 8d 05 ef f2 04 00 	lea    0x4f2ef(%rip),%rax        # 563b8 <__do_global_dtors_aux_fini_array_entry+0x1fc0>
    70c9:	48 89 44 24 38       	mov    %rax,0x38(%rsp)
    70ce:	48 c7 44 24 40 02 00 	movq   $0x2,0x40(%rsp)
    70d5:	00 00 
    70d7:	48 8d 44 24 68       	lea    0x68(%rsp),%rax
    70dc:	48 89 44 24 58       	mov    %rax,0x58(%rsp)
    70e1:	48 c7 44 24 60 02 00 	movq   $0x2,0x60(%rsp)
    70e8:	00 00 
    70ea:	48 8d 44 24 18       	lea    0x18(%rsp),%rax
    70ef:	48 89 44 24 48       	mov    %rax,0x48(%rsp)
    70f4:	48 c7 44 24 50 02 00 	movq   $0x2,0x50(%rsp)
    70fb:	00 00 
    70fd:	48 8d 7c 24 38       	lea    0x38(%rsp),%rdi
    7102:	31 f6                	xor    %esi,%esi
    7104:	ff 15 ae fd 04 00    	callq  *0x4fdae(%rip)        # 56eb8 <_GLOBAL_OFFSET_TABLE_+0x510>
    710a:	66 0f 1f 44 00 00    	nopw   0x0(%rax,%rax,1)

0000000000007110 <_ZN4core9panicking19panic_cannot_unwind17hafabffb9fbccbcefE>:
    7110:	50                   	push   %rax
    7111:	48 8d 3d 0d 30 04 00 	lea    0x4300d(%rip),%rdi        # 4a125 <_ZN11miniz_oxide7inflate4core20REVERSED_BITS_LOOKUP17h44112242f6847035E+0x15e5>
    7118:	be 26 00 00 00       	mov    $0x26,%esi
    711d:	ff 15 d5 fc 04 00    	callq  *0x4fcd5(%rip)        # 56df8 <_GLOBAL_OFFSET_TABLE_+0x450>
    7123:	66 2e 0f 1f 84 00 00 	nopw   %cs:0x0(%rax,%rax,1)
    712a:	00 00 00 
    712d:	0f 1f 00             	nopl   (%rax)

0000000000007130 <_ZN4core9panicking16panic_in_cleanup17h841bdc5cb4c1e775E>:
    7130:	50                   	push   %rax
    7131:	48 8d 3d 13 30 04 00 	lea    0x43013(%rip),%rdi        # 4a14b <_ZN11miniz_oxide7inflate4core20REVERSED_BITS_LOOKUP17h44112242f6847035E+0x160b>
    7138:	be 24 00 00 00       	mov    $0x24,%esi
    713d:	ff 15 bd fc 04 00    	callq  *0x4fcbd(%rip)        # 56e00 <_GLOBAL_OFFSET_TABLE_+0x458>
    7143:	66 2e 0f 1f 84 00 00 	nopw   %cs:0x0(%rax,%rax,1)
    714a:	00 00 00 
    714d:	0f 1f 00             	nopl   (%rax)

0000000000007150 <_ZN4core9panicking19assert_failed_inner17h0bc9ccdb4886b142E>:
    7150:	48 81 ec d8 00 00 00 	sub    $0xd8,%rsp
    7157:	48 89 74 24 10       	mov    %rsi,0x10(%rsp)
    715c:	48 89 54 24 18       	mov    %rdx,0x18(%rsp)
    7161:	48 89 4c 24 20       	mov    %rcx,0x20(%rsp)
    7166:	4c 89 44 24 28       	mov    %r8,0x28(%rsp)
    716b:	40 84 ff             	test   %dil,%dil
    716e:	74 16                	je     7186 <_ZN4core9panicking19assert_failed_inner17h0bc9ccdb4886b142E+0x36>
    7170:	40 0f b6 c7          	movzbl %dil,%eax
    7174:	83 f8 01             	cmp    $0x1,%eax
    7177:	0f 85 ae 00 00 00    	jne    722b <_ZN4core9panicking19assert_failed_inner17h0bc9ccdb4886b142E+0xdb>
    717d:	48 8d 05 ed 2f 04 00 	lea    0x42fed(%rip),%rax        # 4a171 <_ZN11miniz_oxide7inflate4core20REVERSED_BITS_LOOKUP17h44112242f6847035E+0x1631>
    7184:	eb 07                	jmp    718d <_ZN4core9panicking19assert_failed_inner17h0bc9ccdb4886b142E+0x3d>
    7186:	48 8d 05 e2 2f 04 00 	lea    0x42fe2(%rip),%rax        # 4a16f <_ZN11miniz_oxide7inflate4core20REVERSED_BITS_LOOKUP17h44112242f6847035E+0x162f>
    718d:	48 89 04 24          	mov    %rax,(%rsp)
    7191:	b8 02 00 00 00       	mov    $0x2,%eax
    7196:	48 8b b4 24 e0 00 00 	mov    0xe0(%rsp),%rsi
    719d:	00 
    719e:	48 89 44 24 08       	mov    %rax,0x8(%rsp)
    71a3:	49 83 39 00          	cmpq   $0x0,(%r9)
    71a7:	0f 85 a5 00 00 00    	jne    7252 <_ZN4core9panicking19assert_failed_inner17h0bc9ccdb4886b142E+0x102>
    71ad:	48 89 e0             	mov    %rsp,%rax
    71b0:	48 89 44 24 30       	mov    %rax,0x30(%rsp)
    71b5:	48 8d 05 e4 cf 03 00 	lea    0x3cfe4(%rip),%rax        # 441a0 <_ZN44_$LT$$RF$T$u20$as$u20$core..fmt..Display$GT$3fmt17h6b0322a280d09378E>
    71bc:	48 89 44 24 38       	mov    %rax,0x38(%rsp)
    71c1:	48 8d 44 24 10       	lea    0x10(%rsp),%rax
    71c6:	48 89 44 24 40       	mov    %rax,0x40(%rsp)
    71cb:	48 8d 05 be cf 03 00 	lea    0x3cfbe(%rip),%rax        # 44190 <_ZN42_$LT$$RF$T$u20$as$u20$core..fmt..Debug$GT$3fmt17h41b8b9565d013f38E>
    71d2:	48 89 44 24 48       	mov    %rax,0x48(%rsp)
    71d7:	48 8d 4c 24 20       	lea    0x20(%rsp),%rcx
    71dc:	48 89 4c 24 50       	mov    %rcx,0x50(%rsp)
    71e1:	48 89 44 24 58       	mov    %rax,0x58(%rsp)
    71e6:	48 8d 05 eb f1 04 00 	lea    0x4f1eb(%rip),%rax        # 563d8 <__do_global_dtors_aux_fini_array_entry+0x1fe0>
    71ed:	48 89 44 24 70       	mov    %rax,0x70(%rsp)
    71f2:	48 c7 44 24 78 03 00 	movq   $0x3,0x78(%rsp)
    71f9:	00 00 
    71fb:	48 c7 84 24 90 00 00 	movq   $0x0,0x90(%rsp)
    7202:	00 00 00 00 00 
    7207:	48 8d 44 24 30       	lea    0x30(%rsp),%rax
    720c:	48 89 84 24 80 00 00 	mov    %rax,0x80(%rsp)
    7213:	00 
    7214:	48 c7 84 24 88 00 00 	movq   $0x3,0x88(%rsp)
    721b:	00 03 00 00 00 
    7220:	48 8d 7c 24 70       	lea    0x70(%rsp),%rdi
    7225:	ff 15 bd fd 04 00    	callq  *0x4fdbd(%rip)        # 56fe8 <_GLOBAL_OFFSET_TABLE_+0x640>
    722b:	48 8d 05 41 2f 04 00 	lea    0x42f41(%rip),%rax        # 4a173 <_ZN11miniz_oxide7inflate4core20REVERSED_BITS_LOOKUP17h44112242f6847035E+0x1633>
    7232:	48 89 04 24          	mov    %rax,(%rsp)
    7236:	b8 07 00 00 00       	mov    $0x7,%eax
    723b:	48 8b b4 24 e0 00 00 	mov    0xe0(%rsp),%rsi
    7242:	00 
    7243:	48 89 44 24 08       	mov    %rax,0x8(%rsp)
    7248:	49 83 39 00          	cmpq   $0x0,(%r9)
    724c:	0f 84 5b ff ff ff    	je     71ad <_ZN4core9panicking19assert_failed_inner17h0bc9ccdb4886b142E+0x5d>
    7252:	41 0f 10 01          	movups (%r9),%xmm0
    7256:	41 0f 10 49 10       	movups 0x10(%r9),%xmm1
    725b:	41 0f 10 51 20       	movups 0x20(%r9),%xmm2
    7260:	0f 29 94 24 c0 00 00 	movaps %xmm2,0xc0(%rsp)
    7267:	00 
    7268:	0f 29 8c 24 b0 00 00 	movaps %xmm1,0xb0(%rsp)
    726f:	00 
    7270:	0f 29 84 24 a0 00 00 	movaps %xmm0,0xa0(%rsp)
    7277:	00 
    7278:	48 89 e0             	mov    %rsp,%rax
    727b:	48 89 44 24 30       	mov    %rax,0x30(%rsp)
    7280:	48 8d 05 19 cf 03 00 	lea    0x3cf19(%rip),%rax        # 441a0 <_ZN44_$LT$$RF$T$u20$as$u20$core..fmt..Display$GT$3fmt17h6b0322a280d09378E>
    7287:	48 89 44 24 38       	mov    %rax,0x38(%rsp)
    728c:	48 8d 84 24 a0 00 00 	lea    0xa0(%rsp),%rax
    7293:	00 
    7294:	48 89 44 24 40       	mov    %rax,0x40(%rsp)
    7299:	48 8d 05 30 9b 03 00 	lea    0x39b30(%rip),%rax        # 40dd0 <_ZN59_$LT$core..fmt..Arguments$u20$as$u20$core..fmt..Display$GT$3fmt17h347452fdd66020eeE>
    72a0:	48 89 44 24 48       	mov    %rax,0x48(%rsp)
    72a5:	48 8d 44 24 10       	lea    0x10(%rsp),%rax
    72aa:	48 89 44 24 50       	mov    %rax,0x50(%rsp)
    72af:	48 8d 05 da ce 03 00 	lea    0x3ceda(%rip),%rax        # 44190 <_ZN42_$LT$$RF$T$u20$as$u20$core..fmt..Debug$GT$3fmt17h41b8b9565d013f38E>
    72b6:	48 89 44 24 58       	mov    %rax,0x58(%rsp)
    72bb:	48 8d 4c 24 20       	lea    0x20(%rsp),%rcx
    72c0:	48 89 4c 24 60       	mov    %rcx,0x60(%rsp)
    72c5:	48 89 44 24 68       	mov    %rax,0x68(%rsp)
    72ca:	48 8d 05 37 f1 04 00 	lea    0x4f137(%rip),%rax        # 56408 <__do_global_dtors_aux_fini_array_entry+0x2010>
    72d1:	48 89 44 24 70       	mov    %rax,0x70(%rsp)
    72d6:	48 c7 44 24 78 04 00 	movq   $0x4,0x78(%rsp)
    72dd:	00 00 
    72df:	48 c7 84 24 90 00 00 	movq   $0x0,0x90(%rsp)
    72e6:	00 00 00 00 00 
    72eb:	48 8d 44 24 30       	lea    0x30(%rsp),%rax
    72f0:	48 89 84 24 80 00 00 	mov    %rax,0x80(%rsp)
    72f7:	00 
    72f8:	48 c7 84 24 88 00 00 	movq   $0x4,0x88(%rsp)
    72ff:	00 04 00 00 00 
    7304:	48 8d 7c 24 70       	lea    0x70(%rsp),%rdi
    7309:	ff 15 d9 fc 04 00    	callq  *0x4fcd9(%rip)        # 56fe8 <_GLOBAL_OFFSET_TABLE_+0x640>
    730f:	90                   	nop

0000000000007310 <_ZN4core6result13unwrap_failed17h4ef29696267c2949E>:
    7310:	48 83 ec 78          	sub    $0x78,%rsp
    7314:	48 89 7c 24 08       	mov    %rdi,0x8(%rsp)
    7319:	48 89 74 24 10       	mov    %rsi,0x10(%rsp)
    731e:	48 89 54 24 18       	mov    %rdx,0x18(%rsp)
    7323:	48 89 4c 24 20       	mov    %rcx,0x20(%rsp)
    7328:	48 8d 44 24 08       	lea    0x8(%rsp),%rax
    732d:	48 89 44 24 28       	mov    %rax,0x28(%rsp)
    7332:	48 8d 05 67 ce 03 00 	lea    0x3ce67(%rip),%rax        # 441a0 <_ZN44_$LT$$RF$T$u20$as$u20$core..fmt..Display$GT$3fmt17h6b0322a280d09378E>
    7339:	48 89 44 24 30       	mov    %rax,0x30(%rsp)
    733e:	48 8d 44 24 18       	lea    0x18(%rsp),%rax
    7343:	48 89 44 24 38       	mov    %rax,0x38(%rsp)
    7348:	48 8d 05 41 ce 03 00 	lea    0x3ce41(%rip),%rax        # 44190 <_ZN42_$LT$$RF$T$u20$as$u20$core..fmt..Debug$GT$3fmt17h41b8b9565d013f38E>
    734f:	48 89 44 24 40       	mov    %rax,0x40(%rsp)
    7354:	48 8d 05 ed f0 04 00 	lea    0x4f0ed(%rip),%rax        # 56448 <__do_global_dtors_aux_fini_array_entry+0x2050>
    735b:	48 89 44 24 48       	mov    %rax,0x48(%rsp)
    7360:	48 c7 44 24 50 02 00 	movq   $0x2,0x50(%rsp)
    7367:	00 00 
    7369:	48 c7 44 24 68 00 00 	movq   $0x0,0x68(%rsp)
    7370:	00 00 
    7372:	48 8d 44 24 28       	lea    0x28(%rsp),%rax
    7377:	48 89 44 24 58       	mov    %rax,0x58(%rsp)
    737c:	48 c7 44 24 60 02 00 	movq   $0x2,0x60(%rsp)
    7383:	00 00 
    7385:	48 8d 7c 24 48       	lea    0x48(%rsp),%rdi
    738a:	4c 89 c6             	mov    %r8,%rsi
    738d:	ff 15 55 fc 04 00    	callq  *0x4fc55(%rip)        # 56fe8 <_GLOBAL_OFFSET_TABLE_+0x640>
    7393:	66 2e 0f 1f 84 00 00 	nopw   %cs:0x0(%rax,%rax,1)
    739a:	00 00 00 
    739d:	0f 1f 00             	nopl   (%rax)

00000000000073a0 <_ZN4core5slice5index26slice_start_index_len_fail17h9fff6e6c3bc48ed9E>:
    73a0:	48 83 ec 68          	sub    $0x68,%rsp
    73a4:	48 89 7c 24 08       	mov    %rdi,0x8(%rsp)
    73a9:	48 89 74 24 10       	mov    %rsi,0x10(%rsp)
    73ae:	48 8d 44 24 08       	lea    0x8(%rsp),%rax
    73b3:	48 89 44 24 18       	mov    %rax,0x18(%rsp)
    73b8:	48 8d 05 c1 cc 03 00 	lea    0x3ccc1(%rip),%rax        # 44080 <_ZN4core3fmt3num3imp52_$LT$impl$u20$core..fmt..Display$u20$for$u20$u64$GT$3fmt17h5ad2c9ee34d611f2E>
    73bf:	48 89 44 24 20       	mov    %rax,0x20(%rsp)
    73c4:	48 8d 4c 24 10       	lea    0x10(%rsp),%rcx
    73c9:	48 89 4c 24 28       	mov    %rcx,0x28(%rsp)
    73ce:	48 89 44 24 30       	mov    %rax,0x30(%rsp)
    73d3:	48 8d 05 0e f1 04 00 	lea    0x4f10e(%rip),%rax        # 564e8 <_ZN4core3fmt2rt12USIZE_MARKER17hd6df334f96c14b0bE+0x38>
    73da:	48 89 44 24 38       	mov    %rax,0x38(%rsp)
    73df:	48 c7 44 24 40 02 00 	movq   $0x2,0x40(%rsp)
    73e6:	00 00 
    73e8:	48 c7 44 24 58 00 00 	movq   $0x0,0x58(%rsp)
    73ef:	00 00 
    73f1:	48 8d 44 24 18       	lea    0x18(%rsp),%rax
    73f6:	48 89 44 24 48       	mov    %rax,0x48(%rsp)
    73fb:	48 c7 44 24 50 02 00 	movq   $0x2,0x50(%rsp)
    7402:	00 00 
    7404:	48 8d 7c 24 38       	lea    0x38(%rsp),%rdi
    7409:	48 89 d6             	mov    %rdx,%rsi
    740c:	ff 15 d6 fb 04 00    	callq  *0x4fbd6(%rip)        # 56fe8 <_GLOBAL_OFFSET_TABLE_+0x640>
    7412:	66 2e 0f 1f 84 00 00 	nopw   %cs:0x0(%rax,%rax,1)
    7419:	00 00 00 
    741c:	0f 1f 40 00          	nopl   0x0(%rax)

0000000000007420 <_ZN4core5slice5index24slice_end_index_len_fail17ha6291fa025489becE>:
    7420:	48 83 ec 68          	sub    $0x68,%rsp
    7424:	48 89 7c 24 08       	mov    %rdi,0x8(%rsp)
    7429:	48 89 74 24 10       	mov    %rsi,0x10(%rsp)
    742e:	48 8d 44 24 08       	lea    0x8(%rsp),%rax
    7433:	48 89 44 24 18       	mov    %rax,0x18(%rsp)
    7438:	48 8d 05 41 cc 03 00 	lea    0x3cc41(%rip),%rax        # 44080 <_ZN4core3fmt3num3imp52_$LT$impl$u20$core..fmt..Display$u20$for$u20$u64$GT$3fmt17h5ad2c9ee34d611f2E>
    743f:	48 89 44 24 20       	mov    %rax,0x20(%rsp)
    7444:	48 8d 4c 24 10       	lea    0x10(%rsp),%rcx
    7449:	48 89 4c 24 28       	mov    %rcx,0x28(%rsp)
    744e:	48 89 44 24 30       	mov    %rax,0x30(%rsp)
    7453:	48 8d 05 ae f0 04 00 	lea    0x4f0ae(%rip),%rax        # 56508 <_ZN4core3fmt2rt12USIZE_MARKER17hd6df334f96c14b0bE+0x58>
    745a:	48 89 44 24 38       	mov    %rax,0x38(%rsp)
    745f:	48 c7 44 24 40 02 00 	movq   $0x2,0x40(%rsp)
    7466:	00 00 
    7468:	48 c7 44 24 58 00 00 	movq   $0x0,0x58(%rsp)
    746f:	00 00 
    7471:	48 8d 44 24 18       	lea    0x18(%rsp),%rax
    7476:	48 89 44 24 48       	mov    %rax,0x48(%rsp)
    747b:	48 c7 44 24 50 02 00 	movq   $0x2,0x50(%rsp)
    7482:	00 00 
    7484:	48 8d 7c 24 38       	lea    0x38(%rsp),%rdi
    7489:	48 89 d6             	mov    %rdx,%rsi
    748c:	ff 15 56 fb 04 00    	callq  *0x4fb56(%rip)        # 56fe8 <_GLOBAL_OFFSET_TABLE_+0x640>
    7492:	66 2e 0f 1f 84 00 00 	nopw   %cs:0x0(%rax,%rax,1)
    7499:	00 00 00 
    749c:	0f 1f 40 00          	nopl   0x0(%rax)

00000000000074a0 <_ZN4core5slice5index22slice_index_order_fail17h6e1d7db1a62c820fE>:
    74a0:	48 83 ec 68          	sub    $0x68,%rsp
    74a4:	48 89 7c 24 08       	mov    %rdi,0x8(%rsp)
    74a9:	48 89 74 24 10       	mov    %rsi,0x10(%rsp)
    74ae:	48 8d 44 24 08       	lea    0x8(%rsp),%rax
    74b3:	48 89 44 24 18       	mov    %rax,0x18(%rsp)
    74b8:	48 8d 05 c1 cb 03 00 	lea    0x3cbc1(%rip),%rax        # 44080 <_ZN4core3fmt3num3imp52_$LT$impl$u20$core..fmt..Display$u20$for$u20$u64$GT$3fmt17h5ad2c9ee34d611f2E>
    74bf:	48 89 44 24 20       	mov    %rax,0x20(%rsp)
    74c4:	48 8d 4c 24 10       	lea    0x10(%rsp),%rcx
    74c9:	48 89 4c 24 28       	mov    %rcx,0x28(%rsp)
    74ce:	48 89 44 24 30       	mov    %rax,0x30(%rsp)
    74d3:	48 8d 05 4e f0 04 00 	lea    0x4f04e(%rip),%rax        # 56528 <_ZN4core3fmt2rt12USIZE_MARKER17hd6df334f96c14b0bE+0x78>
    74da:	48 89 44 24 38       	mov    %rax,0x38(%rsp)
    74df:	48 c7 44 24 40 02 00 	movq   $0x2,0x40(%rsp)
    74e6:	00 00 
    74e8:	48 c7 44 24 58 00 00 	movq   $0x0,0x58(%rsp)
    74ef:	00 00 
    74f1:	48 8d 44 24 18       	lea    0x18(%rsp),%rax
    74f6:	48 89 44 24 48       	mov    %rax,0x48(%rsp)
    74fb:	48 c7 44 24 50 02 00 	movq   $0x2,0x50(%rsp)
    7502:	00 00 
    7504:	48 8d 7c 24 38       	lea    0x38(%rsp),%rdi
    7509:	48 89 d6             	mov    %rdx,%rsi
    750c:	ff 15 d6 fa 04 00    	callq  *0x4fad6(%rip)        # 56fe8 <_GLOBAL_OFFSET_TABLE_+0x640>
    7512:	66 2e 0f 1f 84 00 00 	nopw   %cs:0x0(%rax,%rax,1)
    7519:	00 00 00 
    751c:	0f 1f 40 00          	nopl   0x0(%rax)

0000000000007520 <_ZN4core5slice5index29slice_end_index_overflow_fail17h1985649ee130a888E>:
    7520:	48 83 ec 38          	sub    $0x38,%rsp
    7524:	48 89 fe             	mov    %rdi,%rsi
    7527:	48 8d 05 1a f0 04 00 	lea    0x4f01a(%rip),%rax        # 56548 <_ZN4core3fmt2rt12USIZE_MARKER17hd6df334f96c14b0bE+0x98>
    752e:	48 89 44 24 08       	mov    %rax,0x8(%rsp)
    7533:	48 c7 44 24 10 01 00 	movq   $0x1,0x10(%rsp)
    753a:	00 00 
    753c:	48 8d 05 25 2a 04 00 	lea    0x42a25(%rip),%rax        # 49f68 <_ZN11miniz_oxide7inflate4core20REVERSED_BITS_LOOKUP17h44112242f6847035E+0x1428>
    7543:	48 89 44 24 18       	mov    %rax,0x18(%rsp)
    7548:	0f 57 c0             	xorps  %xmm0,%xmm0
    754b:	0f 11 44 24 20       	movups %xmm0,0x20(%rsp)
    7550:	48 8d 7c 24 08       	lea    0x8(%rsp),%rdi
    7555:	ff 15 8d fa 04 00    	callq  *0x4fa8d(%rip)        # 56fe8 <_GLOBAL_OFFSET_TABLE_+0x640>
    755b:	0f 1f 44 00 00       	nopl   0x0(%rax,%rax,1)

0000000000007560 <_ZN4core5slice29_$LT$impl$u20$$u5b$T$u5d$$GT$15copy_from_slice17len_mismatch_fail17h510c90c29674670fE>:
    7560:	48 83 ec 68          	sub    $0x68,%rsp
    7564:	48 89 7c 24 08       	mov    %rdi,0x8(%rsp)
    7569:	48 89 74 24 10       	mov    %rsi,0x10(%rsp)
    756e:	48 8d 44 24 10       	lea    0x10(%rsp),%rax
    7573:	48 89 44 24 18       	mov    %rax,0x18(%rsp)
    7578:	48 8d 05 01 cb 03 00 	lea    0x3cb01(%rip),%rax        # 44080 <_ZN4core3fmt3num3imp52_$LT$impl$u20$core..fmt..Display$u20$for$u20$u64$GT$3fmt17h5ad2c9ee34d611f2E>
    757f:	48 89 44 24 20       	mov    %rax,0x20(%rsp)
    7584:	48 8d 4c 24 08       	lea    0x8(%rsp),%rcx
    7589:	48 89 4c 24 28       	mov    %rcx,0x28(%rsp)
    758e:	48 89 44 24 30       	mov    %rax,0x30(%rsp)
    7593:	48 8d 05 be ef 04 00 	lea    0x4efbe(%rip),%rax        # 56558 <_ZN4core3fmt2rt12USIZE_MARKER17hd6df334f96c14b0bE+0xa8>
    759a:	48 89 44 24 38       	mov    %rax,0x38(%rsp)
    759f:	48 c7 44 24 40 03 00 	movq   $0x3,0x40(%rsp)
    75a6:	00 00 
    75a8:	48 c7 44 24 58 00 00 	movq   $0x0,0x58(%rsp)
    75af:	00 00 
    75b1:	48 8d 44 24 18       	lea    0x18(%rsp),%rax
    75b6:	48 89 44 24 48       	mov    %rax,0x48(%rsp)
    75bb:	48 c7 44 24 50 02 00 	movq   $0x2,0x50(%rsp)
    75c2:	00 00 
    75c4:	48 8d 7c 24 38       	lea    0x38(%rsp),%rdi
    75c9:	48 89 d6             	mov    %rdx,%rsi
    75cc:	ff 15 16 fa 04 00    	callq  *0x4fa16(%rip)        # 56fe8 <_GLOBAL_OFFSET_TABLE_+0x640>
    75d2:	66 2e 0f 1f 84 00 00 	nopw   %cs:0x0(%rax,%rax,1)
    75d9:	00 00 00 
    75dc:	0f 1f 40 00          	nopl   0x0(%rax)

00000000000075e0 <_ZN4core3str6traits23str_index_overflow_fail17hce864369f60f1ed8E>:
    75e0:	48 83 ec 38          	sub    $0x38,%rsp
    75e4:	48 89 fe             	mov    %rdi,%rsi
    75e7:	48 8d 05 9a ef 04 00 	lea    0x4ef9a(%rip),%rax        # 56588 <_ZN4core3fmt2rt12USIZE_MARKER17hd6df334f96c14b0bE+0xd8>
    75ee:	48 89 44 24 08       	mov    %rax,0x8(%rsp)
    75f3:	48 c7 44 24 10 01 00 	movq   $0x1,0x10(%rsp)
    75fa:	00 00 
    75fc:	48 8d 05 65 29 04 00 	lea    0x42965(%rip),%rax        # 49f68 <_ZN11miniz_oxide7inflate4core20REVERSED_BITS_LOOKUP17h44112242f6847035E+0x1428>
    7603:	48 89 44 24 18       	mov    %rax,0x18(%rsp)
    7608:	0f 57 c0             	xorps  %xmm0,%xmm0
    760b:	0f 11 44 24 20       	movups %xmm0,0x20(%rsp)
    7610:	48 8d 7c 24 08       	lea    0x8(%rsp),%rdi
    7615:	ff 15 cd f9 04 00    	callq  *0x4f9cd(%rip)        # 56fe8 <_GLOBAL_OFFSET_TABLE_+0x640>
    761b:	0f 1f 44 00 00       	nopl   0x0(%rax,%rax,1)

0000000000007620 <_ZN4core3str16slice_error_fail17h8306f683f602531aE>:
    7620:	50                   	push   %rax
    7621:	ff 15 81 f4 04 00    	callq  *0x4f481(%rip)        # 56aa8 <_GLOBAL_OFFSET_TABLE_+0x100>
    7627:	66 0f 1f 84 00 00 00 	nopw   0x0(%rax,%rax,1)
    762e:	00 00 

0000000000007630 <_start>:
    7630:	f3 0f 1e fa          	endbr64 
    7634:	31 ed                	xor    %ebp,%ebp
    7636:	49 89 d1             	mov    %rdx,%r9
    7639:	5e                   	pop    %rsi
    763a:	48 89 e2             	mov    %rsp,%rdx
    763d:	48 83 e4 f0          	and    $0xfffffffffffffff0,%rsp
    7641:	50                   	push   %rax
    7642:	54                   	push   %rsp
    7643:	4c 8d 05 26 ce 03 00 	lea    0x3ce26(%rip),%r8        # 44470 <__libc_csu_fini>
    764a:	48 8d 0d af cd 03 00 	lea    0x3cdaf(%rip),%rcx        # 44400 <__libc_csu_init>
    7651:	48 8d 3d d8 01 00 00 	lea    0x1d8(%rip),%rdi        # 7830 <main>
    7658:	ff 15 6a f6 04 00    	callq  *0x4f66a(%rip)        # 56cc8 <__libc_start_main@GLIBC_2.2.5>
    765e:	f4                   	hlt    
    765f:	90                   	nop

0000000000007660 <deregister_tm_clones>:
    7660:	48 8d 3d f9 f9 04 00 	lea    0x4f9f9(%rip),%rdi        # 57060 <__TMC_END__>
    7667:	48 8d 05 f2 f9 04 00 	lea    0x4f9f2(%rip),%rax        # 57060 <__TMC_END__>
    766e:	48 39 f8             	cmp    %rdi,%rax
    7671:	74 15                	je     7688 <deregister_tm_clones+0x28>
    7673:	48 8b 05 f6 f3 04 00 	mov    0x4f3f6(%rip),%rax        # 56a70 <_ITM_deregisterTMCloneTable>
    767a:	48 85 c0             	test   %rax,%rax
    767d:	74 09                	je     7688 <deregister_tm_clones+0x28>
    767f:	ff e0                	jmpq   *%rax
    7681:	0f 1f 80 00 00 00 00 	nopl   0x0(%rax)
    7688:	c3                   	retq   
    7689:	0f 1f 80 00 00 00 00 	nopl   0x0(%rax)

0000000000007690 <register_tm_clones>:
    7690:	48 8d 3d c9 f9 04 00 	lea    0x4f9c9(%rip),%rdi        # 57060 <__TMC_END__>
    7697:	48 8d 35 c2 f9 04 00 	lea    0x4f9c2(%rip),%rsi        # 57060 <__TMC_END__>
    769e:	48 29 fe             	sub    %rdi,%rsi
    76a1:	48 89 f0             	mov    %rsi,%rax
    76a4:	48 c1 ee 3f          	shr    $0x3f,%rsi
    76a8:	48 c1 f8 03          	sar    $0x3,%rax
    76ac:	48 01 c6             	add    %rax,%rsi
    76af:	48 d1 fe             	sar    %rsi
    76b2:	74 14                	je     76c8 <register_tm_clones+0x38>
    76b4:	48 8b 05 c5 f8 04 00 	mov    0x4f8c5(%rip),%rax        # 56f80 <_ITM_registerTMCloneTable>
    76bb:	48 85 c0             	test   %rax,%rax
    76be:	74 08                	je     76c8 <register_tm_clones+0x38>
    76c0:	ff e0                	jmpq   *%rax
    76c2:	66 0f 1f 44 00 00    	nopw   0x0(%rax,%rax,1)
    76c8:	c3                   	retq   
    76c9:	0f 1f 80 00 00 00 00 	nopl   0x0(%rax)

00000000000076d0 <__do_global_dtors_aux>:
    76d0:	f3 0f 1e fa          	endbr64 
    76d4:	80 3d 85 f9 04 00 00 	cmpb   $0x0,0x4f985(%rip)        # 57060 <__TMC_END__>
    76db:	75 2b                	jne    7708 <__do_global_dtors_aux+0x38>
    76dd:	55                   	push   %rbp
    76de:	48 83 3d ea f8 04 00 	cmpq   $0x0,0x4f8ea(%rip)        # 56fd0 <__cxa_finalize@GLIBC_2.2.5>
    76e5:	00 
    76e6:	48 89 e5             	mov    %rsp,%rbp
    76e9:	74 0c                	je     76f7 <__do_global_dtors_aux+0x27>
    76eb:	48 8b 3d 0e f9 04 00 	mov    0x4f90e(%rip),%rdi        # 57000 <__dso_handle>
    76f2:	e8 a1 d9 ff ff       	callq  5098 <__cxa_finalize@plt>
    76f7:	e8 64 ff ff ff       	callq  7660 <deregister_tm_clones>
    76fc:	c6 05 5d f9 04 00 01 	movb   $0x1,0x4f95d(%rip)        # 57060 <__TMC_END__>
    7703:	5d                   	pop    %rbp
    7704:	c3                   	retq   
    7705:	0f 1f 00             	nopl   (%rax)
    7708:	c3                   	retq   
    7709:	0f 1f 80 00 00 00 00 	nopl   0x0(%rax)

0000000000007710 <frame_dummy>:
    7710:	f3 0f 1e fa          	endbr64 
    7714:	e9 77 ff ff ff       	jmpq   7690 <register_tm_clones>
    7719:	0f 1f 80 00 00 00 00 	nopl   0x0(%rax)

0000000000007720 <_ZN54_$LT$$LP$$RP$$u20$as$u20$std..process..Termination$GT$6report17ha9fcd2cf00a4811aE>:
    7720:	31 c0                	xor    %eax,%eax
    7722:	c3                   	retq   
    7723:	66 2e 0f 1f 84 00 00 	nopw   %cs:0x0(%rax,%rax,1)
    772a:	00 00 00 
    772d:	0f 1f 00             	nopl   (%rax)

0000000000007730 <_ZN5alloc5slice29_$LT$impl$u20$$u5b$T$u5d$$GT$8into_vec17h6d7a1108ff253001E>:
    7730:	48 83 ec 18          	sub    $0x18,%rsp
    7734:	48 89 f8             	mov    %rdi,%rax
    7737:	48 89 04 24          	mov    %rax,(%rsp)
    773b:	48 89 74 24 08       	mov    %rsi,0x8(%rsp)
    7740:	48 89 54 24 10       	mov    %rdx,0x10(%rsp)
    7745:	e8 86 06 00 00       	callq  7dd0 <_ZN5alloc5slice4hack8into_vec17h613dc185098c7e98E>
    774a:	48 8b 04 24          	mov    (%rsp),%rax
    774e:	48 83 c4 18          	add    $0x18,%rsp
    7752:	c3                   	retq   
    7753:	66 2e 0f 1f 84 00 00 	nopw   %cs:0x0(%rax,%rax,1)
    775a:	00 00 00 
    775d:	0f 1f 00             	nopl   (%rax)

0000000000007760 <_ZN5slice4main17hf026b25bc0ea8eaeE>:
    7760:	48 83 ec 48          	sub    $0x48,%rsp
    7764:	be 04 00 00 00       	mov    $0x4,%esi
    7769:	48 89 f7             	mov    %rsi,%rdi
    776c:	e8 df 00 00 00       	callq  7850 <_ZN5alloc5alloc15exchange_malloc17h2a579d5b0fab6ff6E>
    7771:	48 89 44 24 18       	mov    %rax,0x18(%rsp)
    7776:	48 83 e0 03          	and    $0x3,%rax
    777a:	48 83 f8 00          	cmp    $0x0,%rax
    777e:	0f 94 c0             	sete   %al
    7781:	a8 01                	test   $0x1,%al
    7783:	75 02                	jne    7787 <_ZN5slice4main17hf026b25bc0ea8eaeE+0x27>
    7785:	eb 30                	jmp    77b7 <_ZN5slice4main17hf026b25bc0ea8eaeE+0x57>
    7787:	48 8b 74 24 18       	mov    0x18(%rsp),%rsi
    778c:	c7 06 01 00 00 00    	movl   $0x1,(%rsi)
    7792:	48 8d 7c 24 20       	lea    0x20(%rsp),%rdi
    7797:	48 89 7c 24 08       	mov    %rdi,0x8(%rsp)
    779c:	ba 01 00 00 00       	mov    $0x1,%edx
    77a1:	e8 8a ff ff ff       	callq  7730 <_ZN5alloc5slice29_$LT$impl$u20$$u5b$T$u5d$$GT$8into_vec17h6d7a1108ff253001E>
    77a6:	48 8b 7c 24 08       	mov    0x8(%rsp),%rdi
    77ab:	e8 60 09 00 00       	callq  8110 <_ZN5alloc3vec16Vec$LT$T$C$A$GT$6as_ptr17h8ec7c7bbe2b5639fE>
    77b0:	48 89 44 24 10       	mov    %rax,0x10(%rsp)
    77b5:	eb 36                	jmp    77ed <_ZN5slice4main17hf026b25bc0ea8eaeE+0x8d>
    77b7:	48 8b 74 24 18       	mov    0x18(%rsp),%rsi
    77bc:	48 8d 15 3d cc 04 00 	lea    0x4cc3d(%rip),%rdx        # 54400 <__do_global_dtors_aux_fini_array_entry+0x8>
    77c3:	48 8d 05 56 f8 ff ff 	lea    -0x7aa(%rip),%rax        # 7020 <_ZN4core9panicking36panic_misaligned_pointer_dereference17h45554719e57eb88aE>
    77ca:	bf 04 00 00 00       	mov    $0x4,%edi
    77cf:	ff d0                	callq  *%rax
    77d1:	48 8d 7c 24 20       	lea    0x20(%rsp),%rdi
    77d6:	e8 f5 07 00 00       	callq  7fd0 <_ZN4core3ptr47drop_in_place$LT$alloc..vec..Vec$LT$i32$GT$$GT$17had61c8af8185c57aE>
    77db:	eb 43                	jmp    7820 <_ZN5slice4main17hf026b25bc0ea8eaeE+0xc0>
    77dd:	48 89 c1             	mov    %rax,%rcx
    77e0:	89 d0                	mov    %edx,%eax
    77e2:	48 89 4c 24 38       	mov    %rcx,0x38(%rsp)
    77e7:	89 44 24 40          	mov    %eax,0x40(%rsp)
    77eb:	eb e4                	jmp    77d1 <_ZN5slice4main17hf026b25bc0ea8eaeE+0x71>
    77ed:	48 8b 7c 24 10       	mov    0x10(%rsp),%rdi
    77f2:	48 8d 05 18 0b 00 00 	lea    0xb18(%rip),%rax        # 8311 <out_of_bound>
    77f9:	ff d0                	callq  *%rax
    77fb:	eb 00                	jmp    77fd <_ZN5slice4main17hf026b25bc0ea8eaeE+0x9d>
    77fd:	48 8d 05 71 0a 00 00 	lea    0xa71(%rip),%rax        # 8275 <c_out_of_bound>
    7804:	ff d0                	callq  *%rax
    7806:	eb 00                	jmp    7808 <_ZN5slice4main17hf026b25bc0ea8eaeE+0xa8>
    7808:	48 8d 7c 24 20       	lea    0x20(%rsp),%rdi
    780d:	e8 be 07 00 00       	callq  7fd0 <_ZN4core3ptr47drop_in_place$LT$alloc..vec..Vec$LT$i32$GT$$GT$17had61c8af8185c57aE>
    7812:	48 83 c4 48          	add    $0x48,%rsp
    7816:	c3                   	retq   
    7817:	48 8d 05 12 f9 ff ff 	lea    -0x6ee(%rip),%rax        # 7130 <_ZN4core9panicking16panic_in_cleanup17h841bdc5cb4c1e775E>
    781e:	ff d0                	callq  *%rax
    7820:	48 8b 7c 24 38       	mov    0x38(%rsp),%rdi
    7825:	e8 56 d8 ff ff       	callq  5080 <_Unwind_Resume@plt>
    782a:	66 0f 1f 44 00 00    	nopw   0x0(%rax,%rax,1)

0000000000007830 <main>:
    7830:	50                   	push   %rax
    7831:	48 89 f2             	mov    %rsi,%rdx
    7834:	48 8d 05 2c 37 04 00 	lea    0x4372c(%rip),%rax        # 4af67 <__rustc_debug_gdb_scripts_section__>
    783b:	8a 00                	mov    (%rax),%al
    783d:	48 63 f7             	movslq %edi,%rsi
    7840:	48 8d 3d 19 ff ff ff 	lea    -0xe7(%rip),%rdi        # 7760 <_ZN5slice4main17hf026b25bc0ea8eaeE>
    7847:	31 c9                	xor    %ecx,%ecx
    7849:	e8 92 06 00 00       	callq  7ee0 <_ZN3std2rt10lang_start17hb013f0073a0b1ef8E>
    784e:	59                   	pop    %rcx
    784f:	c3                   	retq   

0000000000007850 <_ZN5alloc5alloc15exchange_malloc17h2a579d5b0fab6ff6E>:
    7850:	48 83 ec 68          	sub    $0x68,%rsp
    7854:	48 8d 05 b0 d7 03 00 	lea    0x3d7b0(%rip),%rax        # 4500b <_fini+0xb57>
    785b:	48 89 04 24          	mov    %rax,(%rsp)
    785f:	48 89 7c 24 30       	mov    %rdi,0x30(%rsp)
    7864:	48 89 74 24 38       	mov    %rsi,0x38(%rsp)
    7869:	48 89 7c 24 10       	mov    %rdi,0x10(%rsp)
    786e:	48 89 74 24 08       	mov    %rsi,0x8(%rsp)
    7873:	48 8b 74 24 08       	mov    0x8(%rsp),%rsi
    7878:	48 8b 54 24 10       	mov    0x10(%rsp),%rdx
    787d:	48 8d 3d 87 d7 03 00 	lea    0x3d787(%rip),%rdi        # 4500b <_fini+0xb57>
    7884:	31 c9                	xor    %ecx,%ecx
    7886:	e8 65 00 00 00       	callq  78f0 <_ZN5alloc5alloc6Global10alloc_impl17hb71cf19c1d4877ddE>
    788b:	48 89 44 24 18       	mov    %rax,0x18(%rsp)
    7890:	48 89 54 24 20       	mov    %rdx,0x20(%rsp)
    7895:	48 8b 54 24 18       	mov    0x18(%rsp),%rdx
    789a:	31 c0                	xor    %eax,%eax
    789c:	b9 01 00 00 00       	mov    $0x1,%ecx
    78a1:	48 83 fa 00          	cmp    $0x0,%rdx
    78a5:	48 0f 44 c1          	cmove  %rcx,%rax
    78a9:	48 83 f8 00          	cmp    $0x0,%rax
    78ad:	75 2d                	jne    78dc <_ZN5alloc5alloc15exchange_malloc17h2a579d5b0fab6ff6E+0x8c>
    78af:	48 8b 44 24 18       	mov    0x18(%rsp),%rax
    78b4:	48 8b 4c 24 20       	mov    0x20(%rsp),%rcx
    78b9:	48 89 44 24 40       	mov    %rax,0x40(%rsp)
    78be:	48 89 4c 24 48       	mov    %rcx,0x48(%rsp)
    78c3:	48 89 44 24 50       	mov    %rax,0x50(%rsp)
    78c8:	48 89 4c 24 58       	mov    %rcx,0x58(%rsp)
    78cd:	48 89 44 24 60       	mov    %rax,0x60(%rsp)
    78d2:	48 89 44 24 28       	mov    %rax,0x28(%rsp)
    78d7:	48 83 c4 68          	add    $0x68,%rsp
    78db:	c3                   	retq   
    78dc:	48 8b 7c 24 08       	mov    0x8(%rsp),%rdi
    78e1:	48 8b 74 24 10       	mov    0x10(%rsp),%rsi
    78e6:	48 8d 05 33 f4 ff ff 	lea    -0xbcd(%rip),%rax        # 6d20 <_ZN5alloc5alloc18handle_alloc_error17h0d048a0e346fe2eeE>
    78ed:	ff d0                	callq  *%rax
    78ef:	90                   	nop

00000000000078f0 <_ZN5alloc5alloc6Global10alloc_impl17hb71cf19c1d4877ddE>:
    78f0:	48 81 ec 28 02 00 00 	sub    $0x228,%rsp
    78f7:	88 c8                	mov    %cl,%al
    78f9:	88 44 24 0f          	mov    %al,0xf(%rsp)
    78fd:	48 c7 44 24 20 00 00 	movq   $0x0,0x20(%rsp)
    7904:	00 00 
    7906:	48 c7 44 24 28 00 00 	movq   $0x0,0x28(%rsp)
    790d:	00 00 
    790f:	48 c7 44 24 30 00 00 	movq   $0x0,0x30(%rsp)
    7916:	00 00 
    7918:	48 8d 0d 43 f7 04 00 	lea    0x4f743(%rip),%rcx        # 57062 <__rust_no_alloc_shim_is_unstable>
    791f:	48 89 4c 24 38       	mov    %rcx,0x38(%rsp)
    7924:	48 8d 0d 37 f7 04 00 	lea    0x4f737(%rip),%rcx        # 57062 <__rust_no_alloc_shim_is_unstable>
    792b:	48 89 4c 24 40       	mov    %rcx,0x40(%rsp)
    7930:	48 8d 0d 2b f7 04 00 	lea    0x4f72b(%rip),%rcx        # 57062 <__rust_no_alloc_shim_is_unstable>
    7937:	48 89 4c 24 48       	mov    %rcx,0x48(%rsp)
    793c:	48 8d 0d 1f f7 04 00 	lea    0x4f71f(%rip),%rcx        # 57062 <__rust_no_alloc_shim_is_unstable>
    7943:	48 89 4c 24 50       	mov    %rcx,0x50(%rsp)
    7948:	48 8d 0d 13 f7 04 00 	lea    0x4f713(%rip),%rcx        # 57062 <__rust_no_alloc_shim_is_unstable>
    794f:	48 89 4c 24 58       	mov    %rcx,0x58(%rsp)
    7954:	48 89 74 24 68       	mov    %rsi,0x68(%rsp)
    7959:	48 89 54 24 70       	mov    %rdx,0x70(%rsp)
    795e:	48 89 bc 24 50 01 00 	mov    %rdi,0x150(%rsp)
    7965:	00 
    7966:	24 01                	and    $0x1,%al
    7968:	88 84 24 5f 01 00 00 	mov    %al,0x15f(%rsp)
    796f:	48 8d 44 24 68       	lea    0x68(%rsp),%rax
    7974:	48 89 84 24 60 01 00 	mov    %rax,0x160(%rsp)
    797b:	00 
    797c:	48 8b 44 24 70       	mov    0x70(%rsp),%rax
    7981:	48 89 44 24 10       	mov    %rax,0x10(%rsp)
    7986:	48 89 84 24 68 01 00 	mov    %rax,0x168(%rsp)
    798d:	00 
    798e:	48 83 f8 00          	cmp    $0x0,%rax
    7992:	0f 85 d5 00 00 00    	jne    7a6d <_ZN5alloc5alloc6Global10alloc_impl17hb71cf19c1d4877ddE+0x17d>
    7998:	48 8d 44 24 68       	lea    0x68(%rsp),%rax
    799d:	48 89 84 24 70 01 00 	mov    %rax,0x170(%rsp)
    79a4:	00 
    79a5:	48 8b 44 24 68       	mov    0x68(%rsp),%rax
    79aa:	48 89 84 24 78 01 00 	mov    %rax,0x178(%rsp)
    79b1:	00 
    79b2:	48 89 84 24 f0 00 00 	mov    %rax,0xf0(%rsp)
    79b9:	00 
    79ba:	48 8b 84 24 f0 00 00 	mov    0xf0(%rsp),%rax
    79c1:	00 
    79c2:	48 89 84 24 80 01 00 	mov    %rax,0x180(%rsp)
    79c9:	00 
    79ca:	48 89 84 24 88 01 00 	mov    %rax,0x188(%rsp)
    79d1:	00 
    79d2:	48 89 84 24 98 00 00 	mov    %rax,0x98(%rsp)
    79d9:	00 
    79da:	48 89 84 24 90 01 00 	mov    %rax,0x190(%rsp)
    79e1:	00 
    79e2:	48 89 84 24 98 01 00 	mov    %rax,0x198(%rsp)
    79e9:	00 
    79ea:	48 89 84 24 08 01 00 	mov    %rax,0x108(%rsp)
    79f1:	00 
    79f2:	48 c7 84 24 10 01 00 	movq   $0x0,0x110(%rsp)
    79f9:	00 00 00 00 00 
    79fe:	48 8b 8c 24 08 01 00 	mov    0x108(%rsp),%rcx
    7a05:	00 
    7a06:	48 8b 84 24 10 01 00 	mov    0x110(%rsp),%rax
    7a0d:	00 
    7a0e:	48 89 8c 24 f8 00 00 	mov    %rcx,0xf8(%rsp)
    7a15:	00 
    7a16:	48 89 84 24 00 01 00 	mov    %rax,0x100(%rsp)
    7a1d:	00 
    7a1e:	48 8b 8c 24 f8 00 00 	mov    0xf8(%rsp),%rcx
    7a25:	00 
    7a26:	48 8b 84 24 00 01 00 	mov    0x100(%rsp),%rax
    7a2d:	00 
    7a2e:	48 89 8c 24 a0 01 00 	mov    %rcx,0x1a0(%rsp)
    7a35:	00 
    7a36:	48 89 84 24 a8 01 00 	mov    %rax,0x1a8(%rsp)
    7a3d:	00 
    7a3e:	48 89 8c 24 88 00 00 	mov    %rcx,0x88(%rsp)
    7a45:	00 
    7a46:	48 89 84 24 90 00 00 	mov    %rax,0x90(%rsp)
    7a4d:	00 
    7a4e:	48 8b 8c 24 88 00 00 	mov    0x88(%rsp),%rcx
    7a55:	00 
    7a56:	48 8b 84 24 90 00 00 	mov    0x90(%rsp),%rax
    7a5d:	00 
    7a5e:	48 89 4c 24 78       	mov    %rcx,0x78(%rsp)
    7a63:	48 89 84 24 80 00 00 	mov    %rax,0x80(%rsp)
    7a6a:	00 
    7a6b:	eb 0e                	jmp    7a7b <_ZN5alloc5alloc6Global10alloc_impl17hb71cf19c1d4877ddE+0x18b>
    7a6d:	8a 44 24 0f          	mov    0xf(%rsp),%al
    7a71:	a8 01                	test   $0x1,%al
    7a73:	0f 85 99 00 00 00    	jne    7b12 <_ZN5alloc5alloc6Global10alloc_impl17hb71cf19c1d4877ddE+0x222>
    7a79:	eb 15                	jmp    7a90 <_ZN5alloc5alloc6Global10alloc_impl17hb71cf19c1d4877ddE+0x1a0>
    7a7b:	48 8b 44 24 78       	mov    0x78(%rsp),%rax
    7a80:	48 8b 94 24 80 00 00 	mov    0x80(%rsp),%rdx
    7a87:	00 
    7a88:	48 81 c4 28 02 00 00 	add    $0x228,%rsp
    7a8f:	c3                   	retq   
    7a90:	48 8b 4c 24 68       	mov    0x68(%rsp),%rcx
    7a95:	48 8b 44 24 70       	mov    0x70(%rsp),%rax
    7a9a:	48 89 8c 24 b8 00 00 	mov    %rcx,0xb8(%rsp)
    7aa1:	00 
    7aa2:	48 89 84 24 c0 00 00 	mov    %rax,0xc0(%rsp)
    7aa9:	00 
    7aaa:	48 8d 05 b1 f5 04 00 	lea    0x4f5b1(%rip),%rax        # 57062 <__rust_no_alloc_shim_is_unstable>
    7ab1:	8a 00                	mov    (%rax),%al
    7ab3:	88 84 24 b7 01 00 00 	mov    %al,0x1b7(%rsp)
    7aba:	48 8d 84 24 b8 00 00 	lea    0xb8(%rsp),%rax
    7ac1:	00 
    7ac2:	48 89 84 24 b8 01 00 	mov    %rax,0x1b8(%rsp)
    7ac9:	00 
    7aca:	48 8b bc 24 c0 00 00 	mov    0xc0(%rsp),%rdi
    7ad1:	00 
    7ad2:	48 8d 84 24 b8 00 00 	lea    0xb8(%rsp),%rax
    7ad9:	00 
    7ada:	48 89 84 24 c0 01 00 	mov    %rax,0x1c0(%rsp)
    7ae1:	00 
    7ae2:	48 8b 84 24 b8 00 00 	mov    0xb8(%rsp),%rax
    7ae9:	00 
    7aea:	48 89 84 24 c8 01 00 	mov    %rax,0x1c8(%rsp)
    7af1:	00 
    7af2:	48 89 84 24 20 01 00 	mov    %rax,0x120(%rsp)
    7af9:	00 
    7afa:	48 8b b4 24 20 01 00 	mov    0x120(%rsp),%rsi
    7b01:	00 
    7b02:	ff 15 f0 f0 04 00    	callq  *0x4f0f0(%rip)        # 56bf8 <_GLOBAL_OFFSET_TABLE_+0x250>
    7b08:	48 89 84 24 a0 00 00 	mov    %rax,0xa0(%rsp)
    7b0f:	00 
    7b10:	eb 70                	jmp    7b82 <_ZN5alloc5alloc6Global10alloc_impl17hb71cf19c1d4877ddE+0x292>
    7b12:	48 8b 4c 24 68       	mov    0x68(%rsp),%rcx
    7b17:	48 8b 44 24 70       	mov    0x70(%rsp),%rax
    7b1c:	48 89 8c 24 a8 00 00 	mov    %rcx,0xa8(%rsp)
    7b23:	00 
    7b24:	48 89 84 24 b0 00 00 	mov    %rax,0xb0(%rsp)
    7b2b:	00 
    7b2c:	48 8d 84 24 a8 00 00 	lea    0xa8(%rsp),%rax
    7b33:	00 
    7b34:	48 89 84 24 d0 01 00 	mov    %rax,0x1d0(%rsp)
    7b3b:	00 
    7b3c:	48 8b bc 24 b0 00 00 	mov    0xb0(%rsp),%rdi
    7b43:	00 
    7b44:	48 8d 84 24 a8 00 00 	lea    0xa8(%rsp),%rax
    7b4b:	00 
    7b4c:	48 89 84 24 d8 01 00 	mov    %rax,0x1d8(%rsp)
    7b53:	00 
    7b54:	48 8b 84 24 a8 00 00 	mov    0xa8(%rsp),%rax
    7b5b:	00 
    7b5c:	48 89 84 24 e0 01 00 	mov    %rax,0x1e0(%rsp)
    7b63:	00 
    7b64:	48 89 84 24 18 01 00 	mov    %rax,0x118(%rsp)
    7b6b:	00 
    7b6c:	48 8b b4 24 18 01 00 	mov    0x118(%rsp),%rsi
    7b73:	00 
    7b74:	ff 15 ce f0 04 00    	callq  *0x4f0ce(%rip)        # 56c48 <_GLOBAL_OFFSET_TABLE_+0x2a0>
    7b7a:	48 89 84 24 a0 00 00 	mov    %rax,0xa0(%rsp)
    7b81:	00 
    7b82:	48 8b 84 24 a0 00 00 	mov    0xa0(%rsp),%rax
    7b89:	00 
    7b8a:	48 89 04 24          	mov    %rax,(%rsp)
    7b8e:	48 89 84 24 e8 01 00 	mov    %rax,0x1e8(%rsp)
    7b95:	00 
    7b96:	48 83 f8 00          	cmp    $0x0,%rax
    7b9a:	75 0e                	jne    7baa <_ZN5alloc5alloc6Global10alloc_impl17hb71cf19c1d4877ddE+0x2ba>
    7b9c:	48 c7 84 24 d8 00 00 	movq   $0x0,0xd8(%rsp)
    7ba3:	00 00 00 00 00 
    7ba8:	eb 1c                	jmp    7bc6 <_ZN5alloc5alloc6Global10alloc_impl17hb71cf19c1d4877ddE+0x2d6>
    7baa:	48 8b 04 24          	mov    (%rsp),%rax
    7bae:	48 89 84 24 28 01 00 	mov    %rax,0x128(%rsp)
    7bb5:	00 
    7bb6:	48 8b 84 24 28 01 00 	mov    0x128(%rsp),%rax
    7bbd:	00 
    7bbe:	48 89 84 24 d8 00 00 	mov    %rax,0xd8(%rsp)
    7bc5:	00 
    7bc6:	48 8b 94 24 d8 00 00 	mov    0xd8(%rsp),%rdx
    7bcd:	00 
    7bce:	b8 01 00 00 00       	mov    $0x1,%eax
    7bd3:	31 c9                	xor    %ecx,%ecx
    7bd5:	48 83 fa 00          	cmp    $0x0,%rdx
    7bd9:	48 0f 44 c1          	cmove  %rcx,%rax
    7bdd:	48 83 f8 00          	cmp    $0x0,%rax
    7be1:	75 0e                	jne    7bf1 <_ZN5alloc5alloc6Global10alloc_impl17hb71cf19c1d4877ddE+0x301>
    7be3:	48 c7 84 24 d0 00 00 	movq   $0x0,0xd0(%rsp)
    7bea:	00 00 00 00 00 
    7bef:	eb 18                	jmp    7c09 <_ZN5alloc5alloc6Global10alloc_impl17hb71cf19c1d4877ddE+0x319>
    7bf1:	48 8b 84 24 d8 00 00 	mov    0xd8(%rsp),%rax
    7bf8:	00 
    7bf9:	48 89 84 24 f0 01 00 	mov    %rax,0x1f0(%rsp)
    7c00:	00 
    7c01:	48 89 84 24 d0 00 00 	mov    %rax,0xd0(%rsp)
    7c08:	00 
    7c09:	48 8b 94 24 d0 00 00 	mov    0xd0(%rsp),%rdx
    7c10:	00 
    7c11:	31 c0                	xor    %eax,%eax
    7c13:	b9 01 00 00 00       	mov    $0x1,%ecx
    7c18:	48 83 fa 00          	cmp    $0x0,%rdx
    7c1c:	48 0f 44 c1          	cmove  %rcx,%rax
    7c20:	48 83 f8 00          	cmp    $0x0,%rax
    7c24:	75 1a                	jne    7c40 <_ZN5alloc5alloc6Global10alloc_impl17hb71cf19c1d4877ddE+0x350>
    7c26:	48 8b 84 24 d0 00 00 	mov    0xd0(%rsp),%rax
    7c2d:	00 
    7c2e:	48 89 84 24 f8 01 00 	mov    %rax,0x1f8(%rsp)
    7c35:	00 
    7c36:	48 89 84 24 c8 00 00 	mov    %rax,0xc8(%rsp)
    7c3d:	00 
    7c3e:	eb 0c                	jmp    7c4c <_ZN5alloc5alloc6Global10alloc_impl17hb71cf19c1d4877ddE+0x35c>
    7c40:	48 c7 84 24 c8 00 00 	movq   $0x0,0xc8(%rsp)
    7c47:	00 00 00 00 00 
    7c4c:	48 8b 94 24 c8 00 00 	mov    0xc8(%rsp),%rdx
    7c53:	00 
    7c54:	31 c0                	xor    %eax,%eax
    7c56:	b9 01 00 00 00       	mov    $0x1,%ecx
    7c5b:	48 83 fa 00          	cmp    $0x0,%rdx
    7c5f:	48 0f 44 c1          	cmove  %rcx,%rax
    7c63:	48 83 f8 00          	cmp    $0x0,%rax
    7c67:	0f 85 a7 00 00 00    	jne    7d14 <_ZN5alloc5alloc6Global10alloc_impl17hb71cf19c1d4877ddE+0x424>
    7c6d:	48 8b 44 24 10       	mov    0x10(%rsp),%rax
    7c72:	48 8b 8c 24 c8 00 00 	mov    0xc8(%rsp),%rcx
    7c79:	00 
    7c7a:	48 89 8c 24 00 02 00 	mov    %rcx,0x200(%rsp)
    7c81:	00 
    7c82:	48 89 8c 24 08 02 00 	mov    %rcx,0x208(%rsp)
    7c89:	00 
    7c8a:	48 89 8c 24 10 02 00 	mov    %rcx,0x210(%rsp)
    7c91:	00 
    7c92:	48 89 8c 24 40 01 00 	mov    %rcx,0x140(%rsp)
    7c99:	00 
    7c9a:	48 89 84 24 48 01 00 	mov    %rax,0x148(%rsp)
    7ca1:	00 
    7ca2:	48 8b 8c 24 40 01 00 	mov    0x140(%rsp),%rcx
    7ca9:	00 
    7caa:	48 8b 84 24 48 01 00 	mov    0x148(%rsp),%rax
    7cb1:	00 
    7cb2:	48 89 8c 24 30 01 00 	mov    %rcx,0x130(%rsp)
    7cb9:	00 
    7cba:	48 89 84 24 38 01 00 	mov    %rax,0x138(%rsp)
    7cc1:	00 
    7cc2:	48 8b 8c 24 30 01 00 	mov    0x130(%rsp),%rcx
    7cc9:	00 
    7cca:	48 8b 84 24 38 01 00 	mov    0x138(%rsp),%rax
    7cd1:	00 
    7cd2:	48 89 8c 24 18 02 00 	mov    %rcx,0x218(%rsp)
    7cd9:	00 
    7cda:	48 89 84 24 20 02 00 	mov    %rax,0x220(%rsp)
    7ce1:	00 
    7ce2:	48 89 8c 24 e0 00 00 	mov    %rcx,0xe0(%rsp)
    7ce9:	00 
    7cea:	48 89 84 24 e8 00 00 	mov    %rax,0xe8(%rsp)
    7cf1:	00 
    7cf2:	48 8b 8c 24 e0 00 00 	mov    0xe0(%rsp),%rcx
    7cf9:	00 
    7cfa:	48 8b 84 24 e8 00 00 	mov    0xe8(%rsp),%rax
    7d01:	00 
    7d02:	48 89 4c 24 78       	mov    %rcx,0x78(%rsp)
    7d07:	48 89 84 24 80 00 00 	mov    %rax,0x80(%rsp)
    7d0e:	00 
    7d0f:	e9 67 fd ff ff       	jmpq   7a7b <_ZN5alloc5alloc6Global10alloc_impl17hb71cf19c1d4877ddE+0x18b>
    7d14:	48 8b 0d f5 d2 03 00 	mov    0x3d2f5(%rip),%rcx        # 45010 <_fini+0xb5c>
    7d1b:	48 8b 05 f6 d2 03 00 	mov    0x3d2f6(%rip),%rax        # 45018 <_fini+0xb64>
    7d22:	48 89 4c 24 78       	mov    %rcx,0x78(%rsp)
    7d27:	48 89 84 24 80 00 00 	mov    %rax,0x80(%rsp)
    7d2e:	00 
    7d2f:	e9 47 fd ff ff       	jmpq   7a7b <_ZN5alloc5alloc6Global10alloc_impl17hb71cf19c1d4877ddE+0x18b>
    7d34:	66 2e 0f 1f 84 00 00 	nopw   %cs:0x0(%rax,%rax,1)
    7d3b:	00 00 00 
    7d3e:	66 90                	xchg   %ax,%ax

0000000000007d40 <_ZN63_$LT$alloc..alloc..Global$u20$as$u20$core..alloc..Allocator$GT$10deallocate17hfbf6483d65cea63fE>:
    7d40:	48 83 ec 68          	sub    $0x68,%rsp
    7d44:	48 89 34 24          	mov    %rsi,(%rsp)
    7d48:	48 89 54 24 08       	mov    %rdx,0x8(%rsp)
    7d4d:	48 89 4c 24 10       	mov    %rcx,0x10(%rsp)
    7d52:	48 89 7c 24 30       	mov    %rdi,0x30(%rsp)
    7d57:	48 89 74 24 38       	mov    %rsi,0x38(%rsp)
    7d5c:	48 8d 44 24 08       	lea    0x8(%rsp),%rax
    7d61:	48 89 44 24 40       	mov    %rax,0x40(%rsp)
    7d66:	48 83 7c 24 10 00    	cmpq   $0x0,0x10(%rsp)
    7d6c:	75 02                	jne    7d70 <_ZN63_$LT$alloc..alloc..Global$u20$as$u20$core..alloc..Allocator$GT$10deallocate17hfbf6483d65cea63fE+0x30>
    7d6e:	eb 50                	jmp    7dc0 <_ZN63_$LT$alloc..alloc..Global$u20$as$u20$core..alloc..Allocator$GT$10deallocate17hfbf6483d65cea63fE+0x80>
    7d70:	48 8b 3c 24          	mov    (%rsp),%rdi
    7d74:	48 89 7c 24 48       	mov    %rdi,0x48(%rsp)
    7d79:	48 8b 4c 24 08       	mov    0x8(%rsp),%rcx
    7d7e:	48 8b 44 24 10       	mov    0x10(%rsp),%rax
    7d83:	48 89 4c 24 18       	mov    %rcx,0x18(%rsp)
    7d88:	48 89 44 24 20       	mov    %rax,0x20(%rsp)
    7d8d:	48 8d 44 24 18       	lea    0x18(%rsp),%rax
    7d92:	48 89 44 24 50       	mov    %rax,0x50(%rsp)
    7d97:	48 8b 74 24 20       	mov    0x20(%rsp),%rsi
    7d9c:	48 8d 44 24 18       	lea    0x18(%rsp),%rax
    7da1:	48 89 44 24 58       	mov    %rax,0x58(%rsp)
    7da6:	48 8b 44 24 18       	mov    0x18(%rsp),%rax
    7dab:	48 89 44 24 60       	mov    %rax,0x60(%rsp)
    7db0:	48 89 44 24 28       	mov    %rax,0x28(%rsp)
    7db5:	48 8b 54 24 28       	mov    0x28(%rsp),%rdx
    7dba:	ff 15 80 ee 04 00    	callq  *0x4ee80(%rip)        # 56c40 <_GLOBAL_OFFSET_TABLE_+0x298>
    7dc0:	48 83 c4 68          	add    $0x68,%rsp
    7dc4:	c3                   	retq   
    7dc5:	66 2e 0f 1f 84 00 00 	nopw   %cs:0x0(%rax,%rax,1)
    7dcc:	00 00 00 
    7dcf:	90                   	nop

0000000000007dd0 <_ZN5alloc5slice4hack8into_vec17h613dc185098c7e98E>:
    7dd0:	48 83 ec 70          	sub    $0x70,%rsp
    7dd4:	48 89 54 24 80       	mov    %rdx,-0x80(%rsp)
    7dd9:	48 89 7c 24 88       	mov    %rdi,-0x78(%rsp)
    7dde:	48 89 7c 24 90       	mov    %rdi,-0x70(%rsp)
    7de3:	48 89 74 24 f8       	mov    %rsi,-0x8(%rsp)
    7de8:	48 89 14 24          	mov    %rdx,(%rsp)
    7dec:	48 89 54 24 10       	mov    %rdx,0x10(%rsp)
    7df1:	48 89 74 24 a0       	mov    %rsi,-0x60(%rsp)
    7df6:	48 89 54 24 a8       	mov    %rdx,-0x58(%rsp)
    7dfb:	48 8d 44 24 a0       	lea    -0x60(%rsp),%rax
    7e00:	48 83 c0 10          	add    $0x10,%rax
    7e04:	48 89 44 24 18       	mov    %rax,0x18(%rsp)
    7e09:	48 8b 4c 24 a0       	mov    -0x60(%rsp),%rcx
    7e0e:	48 8b 44 24 a8       	mov    -0x58(%rsp),%rax
    7e13:	48 89 4c 24 20       	mov    %rcx,0x20(%rsp)
    7e18:	48 89 44 24 28       	mov    %rax,0x28(%rsp)
    7e1d:	48 89 4c 24 b0       	mov    %rcx,-0x50(%rsp)
    7e22:	48 89 44 24 b8       	mov    %rax,-0x48(%rsp)
    7e27:	48 8d 44 24 b0       	lea    -0x50(%rsp),%rax
    7e2c:	48 89 44 24 30       	mov    %rax,0x30(%rsp)
    7e31:	48 8b 44 24 b0       	mov    -0x50(%rsp),%rax
    7e36:	48 89 44 24 98       	mov    %rax,-0x68(%rsp)
    7e3b:	48 8b 4c 24 b8       	mov    -0x48(%rsp),%rcx
    7e40:	48 89 44 24 38       	mov    %rax,0x38(%rsp)
    7e45:	48 89 4c 24 40       	mov    %rcx,0x40(%rsp)
    7e4a:	48 89 44 24 48       	mov    %rax,0x48(%rsp)
    7e4f:	48 89 4c 24 50       	mov    %rcx,0x50(%rsp)
    7e54:	48 89 44 24 c0       	mov    %rax,-0x40(%rsp)
    7e59:	48 89 4c 24 c8       	mov    %rcx,-0x38(%rsp)
    7e5e:	48 89 44 24 58       	mov    %rax,0x58(%rsp)
    7e63:	48 89 4c 24 60       	mov    %rcx,0x60(%rsp)
    7e68:	48 89 44 24 68       	mov    %rax,0x68(%rsp)
    7e6d:	31 c0                	xor    %eax,%eax
    7e6f:	a8 01                	test   $0x1,%al
    7e71:	75 0c                	jne    7e7f <_ZN5alloc5slice4hack8into_vec17h613dc185098c7e98E+0xaf>
    7e73:	48 8b 44 24 80       	mov    -0x80(%rsp),%rax
    7e78:	48 89 44 24 e0       	mov    %rax,-0x20(%rsp)
    7e7d:	eb 09                	jmp    7e88 <_ZN5alloc5slice4hack8into_vec17h613dc185098c7e98E+0xb8>
    7e7f:	48 c7 44 24 e0 00 00 	movq   $0x0,-0x20(%rsp)
    7e86:	00 00 
    7e88:	48 8b 44 24 90       	mov    -0x70(%rsp),%rax
    7e8d:	48 8b 4c 24 88       	mov    -0x78(%rsp),%rcx
    7e92:	48 8b 54 24 80       	mov    -0x80(%rsp),%rdx
    7e97:	48 8b 74 24 98       	mov    -0x68(%rsp),%rsi
    7e9c:	48 89 74 24 f0       	mov    %rsi,-0x10(%rsp)
    7ea1:	48 8b 74 24 f0       	mov    -0x10(%rsp),%rsi
    7ea6:	48 89 74 24 e8       	mov    %rsi,-0x18(%rsp)
    7eab:	48 8b 74 24 e0       	mov    -0x20(%rsp),%rsi
    7eb0:	48 8b 7c 24 e8       	mov    -0x18(%rsp),%rdi
    7eb5:	48 89 7c 24 d8       	mov    %rdi,-0x28(%rsp)
    7eba:	48 89 74 24 d0       	mov    %rsi,-0x30(%rsp)
    7ebf:	48 8b 7c 24 d0       	mov    -0x30(%rsp),%rdi
    7ec4:	48 8b 74 24 d8       	mov    -0x28(%rsp),%rsi
    7ec9:	48 89 39             	mov    %rdi,(%rcx)
    7ecc:	48 89 71 08          	mov    %rsi,0x8(%rcx)
    7ed0:	48 89 51 10          	mov    %rdx,0x10(%rcx)
    7ed4:	48 83 c4 70          	add    $0x70,%rsp
    7ed8:	c3                   	retq   
    7ed9:	0f 1f 80 00 00 00 00 	nopl   0x0(%rax)

0000000000007ee0 <_ZN3std2rt10lang_start17hb013f0073a0b1ef8E>:
    7ee0:	48 83 ec 38          	sub    $0x38,%rsp
    7ee4:	89 c8                	mov    %ecx,%eax
    7ee6:	48 89 d1             	mov    %rdx,%rcx
    7ee9:	48 89 f2             	mov    %rsi,%rdx
    7eec:	48 89 7c 24 10       	mov    %rdi,0x10(%rsp)
    7ef1:	48 89 54 24 18       	mov    %rdx,0x18(%rsp)
    7ef6:	48 89 4c 24 20       	mov    %rcx,0x20(%rsp)
    7efb:	88 44 24 2f          	mov    %al,0x2f(%rsp)
    7eff:	48 89 7c 24 08       	mov    %rdi,0x8(%rsp)
    7f04:	48 8d 7c 24 08       	lea    0x8(%rsp),%rdi
    7f09:	48 8d 35 08 c5 04 00 	lea    0x4c508(%rip),%rsi        # 54418 <__do_global_dtors_aux_fini_array_entry+0x20>
    7f10:	44 0f b6 c0          	movzbl %al,%r8d
    7f14:	ff 15 6e eb 04 00    	callq  *0x4eb6e(%rip)        # 56a88 <_GLOBAL_OFFSET_TABLE_+0xe0>
    7f1a:	48 89 04 24          	mov    %rax,(%rsp)
    7f1e:	48 8b 04 24          	mov    (%rsp),%rax
    7f22:	48 89 44 24 30       	mov    %rax,0x30(%rsp)
    7f27:	48 83 c4 38          	add    $0x38,%rsp
    7f2b:	c3                   	retq   
    7f2c:	0f 1f 40 00          	nopl   0x0(%rax)

0000000000007f30 <_ZN3std2rt10lang_start28_$u7b$$u7b$closure$u7d$$u7d$17h30268f168c7b5a88E>:
    7f30:	48 83 ec 18          	sub    $0x18,%rsp
    7f34:	48 89 7c 24 08       	mov    %rdi,0x8(%rsp)
    7f39:	48 8b 3f             	mov    (%rdi),%rdi
    7f3c:	e8 ef 01 00 00       	callq  8130 <_ZN3std10sys_common9backtrace28__rust_begin_short_backtrace17h7fb0e4a933b9883fE>
    7f41:	e8 da f7 ff ff       	callq  7720 <_ZN54_$LT$$LP$$RP$$u20$as$u20$std..process..Termination$GT$6report17ha9fcd2cf00a4811aE>
    7f46:	88 44 24 07          	mov    %al,0x7(%rsp)
    7f4a:	48 8d 44 24 07       	lea    0x7(%rsp),%rax
    7f4f:	48 89 44 24 10       	mov    %rax,0x10(%rsp)
    7f54:	0f b6 44 24 07       	movzbl 0x7(%rsp),%eax
    7f59:	48 83 c4 18          	add    $0x18,%rsp
    7f5d:	c3                   	retq   
    7f5e:	66 90                	xchg   %ax,%ax

0000000000007f60 <_ZN4core3ops8function6FnOnce40call_once$u7b$$u7b$vtable.shim$u7d$$u7d$17h2659f79e5bd7c882E>:
    7f60:	48 83 ec 18          	sub    $0x18,%rsp
    7f64:	48 89 7c 24 10       	mov    %rdi,0x10(%rsp)
    7f69:	48 8b 3f             	mov    (%rdi),%rdi
    7f6c:	e8 0f 00 00 00       	callq  7f80 <_ZN4core3ops8function6FnOnce9call_once17h0ee7c286db35b5d3E>
    7f71:	48 83 c4 18          	add    $0x18,%rsp
    7f75:	c3                   	retq   
    7f76:	66 2e 0f 1f 84 00 00 	nopw   %cs:0x0(%rax,%rax,1)
    7f7d:	00 00 00 

0000000000007f80 <_ZN4core3ops8function6FnOnce9call_once17h0ee7c286db35b5d3E>:
    7f80:	48 83 ec 28          	sub    $0x28,%rsp
    7f84:	48 89 7c 24 08       	mov    %rdi,0x8(%rsp)
    7f89:	48 8d 7c 24 08       	lea    0x8(%rsp),%rdi
    7f8e:	e8 9d ff ff ff       	callq  7f30 <_ZN3std2rt10lang_start28_$u7b$$u7b$closure$u7d$$u7d$17h30268f168c7b5a88E>
    7f93:	89 44 24 04          	mov    %eax,0x4(%rsp)
    7f97:	eb 1a                	jmp    7fb3 <_ZN4core3ops8function6FnOnce9call_once17h0ee7c286db35b5d3E+0x33>
    7f99:	48 8b 7c 24 18       	mov    0x18(%rsp),%rdi
    7f9e:	e8 dd d0 ff ff       	callq  5080 <_Unwind_Resume@plt>
    7fa3:	48 89 c1             	mov    %rax,%rcx
    7fa6:	89 d0                	mov    %edx,%eax
    7fa8:	48 89 4c 24 18       	mov    %rcx,0x18(%rsp)
    7fad:	89 44 24 20          	mov    %eax,0x20(%rsp)
    7fb1:	eb e6                	jmp    7f99 <_ZN4core3ops8function6FnOnce9call_once17h0ee7c286db35b5d3E+0x19>
    7fb3:	8b 44 24 04          	mov    0x4(%rsp),%eax
    7fb7:	48 83 c4 28          	add    $0x28,%rsp
    7fbb:	c3                   	retq   
    7fbc:	0f 1f 40 00          	nopl   0x0(%rax)

0000000000007fc0 <_ZN4core3ops8function6FnOnce9call_once17hc667de8150710832E>:
    7fc0:	48 83 ec 18          	sub    $0x18,%rsp
    7fc4:	48 89 7c 24 10       	mov    %rdi,0x10(%rsp)
    7fc9:	ff d7                	callq  *%rdi
    7fcb:	48 83 c4 18          	add    $0x18,%rsp
    7fcf:	c3                   	retq   

0000000000007fd0 <_ZN4core3ptr47drop_in_place$LT$alloc..vec..Vec$LT$i32$GT$$GT$17had61c8af8185c57aE>:
    7fd0:	48 83 ec 28          	sub    $0x28,%rsp
    7fd4:	48 89 7c 24 08       	mov    %rdi,0x8(%rsp)
    7fd9:	48 89 7c 24 10       	mov    %rdi,0x10(%rsp)
    7fde:	e8 6d 00 00 00       	callq  8050 <_ZN70_$LT$alloc..vec..Vec$LT$T$C$A$GT$$u20$as$u20$core..ops..drop..Drop$GT$4drop17h91bd33c4c3afc1a5E>
    7fe3:	eb 1c                	jmp    8001 <_ZN4core3ptr47drop_in_place$LT$alloc..vec..Vec$LT$i32$GT$$GT$17had61c8af8185c57aE+0x31>
    7fe5:	48 8b 7c 24 08       	mov    0x8(%rsp),%rdi
    7fea:	e8 41 00 00 00       	callq  8030 <_ZN4core3ptr54drop_in_place$LT$alloc..raw_vec..RawVec$LT$i32$GT$$GT$17hcd79c28be7a75a13E>
    7fef:	eb 28                	jmp    8019 <_ZN4core3ptr47drop_in_place$LT$alloc..vec..Vec$LT$i32$GT$$GT$17had61c8af8185c57aE+0x49>
    7ff1:	48 89 c1             	mov    %rax,%rcx
    7ff4:	89 d0                	mov    %edx,%eax
    7ff6:	48 89 4c 24 18       	mov    %rcx,0x18(%rsp)
    7ffb:	89 44 24 20          	mov    %eax,0x20(%rsp)
    7fff:	eb e4                	jmp    7fe5 <_ZN4core3ptr47drop_in_place$LT$alloc..vec..Vec$LT$i32$GT$$GT$17had61c8af8185c57aE+0x15>
    8001:	48 8b 7c 24 08       	mov    0x8(%rsp),%rdi
    8006:	e8 25 00 00 00       	callq  8030 <_ZN4core3ptr54drop_in_place$LT$alloc..raw_vec..RawVec$LT$i32$GT$$GT$17hcd79c28be7a75a13E>
    800b:	48 83 c4 28          	add    $0x28,%rsp
    800f:	c3                   	retq   
    8010:	48 8d 05 19 f1 ff ff 	lea    -0xee7(%rip),%rax        # 7130 <_ZN4core9panicking16panic_in_cleanup17h841bdc5cb4c1e775E>
    8017:	ff d0                	callq  *%rax
    8019:	48 8b 7c 24 18       	mov    0x18(%rsp),%rdi
    801e:	e8 5d d0 ff ff       	callq  5080 <_Unwind_Resume@plt>
    8023:	66 2e 0f 1f 84 00 00 	nopw   %cs:0x0(%rax,%rax,1)
    802a:	00 00 00 
    802d:	0f 1f 00             	nopl   (%rax)

0000000000008030 <_ZN4core3ptr54drop_in_place$LT$alloc..raw_vec..RawVec$LT$i32$GT$$GT$17hcd79c28be7a75a13E>:
    8030:	50                   	push   %rax
    8031:	48 89 3c 24          	mov    %rdi,(%rsp)
    8035:	e8 66 00 00 00       	callq  80a0 <_ZN77_$LT$alloc..raw_vec..RawVec$LT$T$C$A$GT$$u20$as$u20$core..ops..drop..Drop$GT$4drop17h54b592b76b3ca6c3E>
    803a:	58                   	pop    %rax
    803b:	c3                   	retq   
    803c:	0f 1f 40 00          	nopl   0x0(%rax)

0000000000008040 <_ZN4core3ptr85drop_in_place$LT$std..rt..lang_start$LT$$LP$$RP$$GT$..$u7b$$u7b$closure$u7d$$u7d$$GT$17h92d56582a83f5983E>:
    8040:	48 89 7c 24 f8       	mov    %rdi,-0x8(%rsp)
    8045:	c3                   	retq   
    8046:	66 2e 0f 1f 84 00 00 	nopw   %cs:0x0(%rax,%rax,1)
    804d:	00 00 00 

0000000000008050 <_ZN70_$LT$alloc..vec..Vec$LT$T$C$A$GT$$u20$as$u20$core..ops..drop..Drop$GT$4drop17h91bd33c4c3afc1a5E>:
    8050:	48 89 7c 24 d0       	mov    %rdi,-0x30(%rsp)
    8055:	48 89 7c 24 d8       	mov    %rdi,-0x28(%rsp)
    805a:	48 8b 4f 08          	mov    0x8(%rdi),%rcx
    805e:	48 89 4c 24 e0       	mov    %rcx,-0x20(%rsp)
    8063:	48 89 4c 24 e8       	mov    %rcx,-0x18(%rsp)
    8068:	48 8b 47 10          	mov    0x10(%rdi),%rax
    806c:	48 89 44 24 f0       	mov    %rax,-0x10(%rsp)
    8071:	48 89 4c 24 f8       	mov    %rcx,-0x8(%rsp)
    8076:	48 89 4c 24 c0       	mov    %rcx,-0x40(%rsp)
    807b:	48 89 44 24 c8       	mov    %rax,-0x38(%rsp)
    8080:	48 8b 4c 24 c0       	mov    -0x40(%rsp),%rcx
    8085:	48 8b 44 24 c8       	mov    -0x38(%rsp),%rax
    808a:	48 89 4c 24 b0       	mov    %rcx,-0x50(%rsp)
    808f:	48 89 44 24 b8       	mov    %rax,-0x48(%rsp)
    8094:	c3                   	retq   
    8095:	66 2e 0f 1f 84 00 00 	nopw   %cs:0x0(%rax,%rax,1)
    809c:	00 00 00 
    809f:	90                   	nop

00000000000080a0 <_ZN77_$LT$alloc..raw_vec..RawVec$LT$T$C$A$GT$$u20$as$u20$core..ops..drop..Drop$GT$4drop17h54b592b76b3ca6c3E>:
    80a0:	48 83 ec 48          	sub    $0x48,%rsp
    80a4:	48 89 fe             	mov    %rdi,%rsi
    80a7:	48 89 74 24 08       	mov    %rsi,0x8(%rsp)
    80ac:	48 89 74 24 28       	mov    %rsi,0x28(%rsp)
    80b1:	48 8d 7c 24 10       	lea    0x10(%rsp),%rdi
    80b6:	e8 95 00 00 00       	callq  8150 <_ZN5alloc7raw_vec19RawVec$LT$T$C$A$GT$14current_memory17h68372e68b13b9cfeE>
    80bb:	b8 01 00 00 00       	mov    $0x1,%eax
    80c0:	31 c9                	xor    %ecx,%ecx
    80c2:	48 83 7c 24 18 00    	cmpq   $0x0,0x18(%rsp)
    80c8:	48 0f 44 c1          	cmove  %rcx,%rax
    80cc:	48 83 f8 01          	cmp    $0x1,%rax
    80d0:	75 2c                	jne    80fe <_ZN77_$LT$alloc..raw_vec..RawVec$LT$T$C$A$GT$$u20$as$u20$core..ops..drop..Drop$GT$4drop17h54b592b76b3ca6c3E+0x5e>
    80d2:	48 8b 7c 24 08       	mov    0x8(%rsp),%rdi
    80d7:	48 8b 74 24 10       	mov    0x10(%rsp),%rsi
    80dc:	48 89 74 24 30       	mov    %rsi,0x30(%rsp)
    80e1:	48 8b 54 24 18       	mov    0x18(%rsp),%rdx
    80e6:	48 8b 4c 24 20       	mov    0x20(%rsp),%rcx
    80eb:	48 89 54 24 38       	mov    %rdx,0x38(%rsp)
    80f0:	48 89 4c 24 40       	mov    %rcx,0x40(%rsp)
    80f5:	48 83 c7 10          	add    $0x10,%rdi
    80f9:	e8 42 fc ff ff       	callq  7d40 <_ZN63_$LT$alloc..alloc..Global$u20$as$u20$core..alloc..Allocator$GT$10deallocate17hfbf6483d65cea63fE>
    80fe:	48 83 c4 48          	add    $0x48,%rsp
    8102:	c3                   	retq   
    8103:	66 2e 0f 1f 84 00 00 	nopw   %cs:0x0(%rax,%rax,1)
    810a:	00 00 00 
    810d:	0f 1f 00             	nopl   (%rax)

0000000000008110 <_ZN5alloc3vec16Vec$LT$T$C$A$GT$6as_ptr17h8ec7c7bbe2b5639fE>:
    8110:	48 89 7c 24 e8       	mov    %rdi,-0x18(%rsp)
    8115:	48 89 7c 24 f0       	mov    %rdi,-0x10(%rsp)
    811a:	48 8b 47 08          	mov    0x8(%rdi),%rax
    811e:	48 89 44 24 f8       	mov    %rax,-0x8(%rsp)
    8123:	c3                   	retq   
    8124:	66 2e 0f 1f 84 00 00 	nopw   %cs:0x0(%rax,%rax,1)
    812b:	00 00 00 
    812e:	66 90                	xchg   %ax,%ax

0000000000008130 <_ZN3std10sys_common9backtrace28__rust_begin_short_backtrace17h7fb0e4a933b9883fE>:
    8130:	48 83 ec 18          	sub    $0x18,%rsp
    8134:	48 89 7c 24 10       	mov    %rdi,0x10(%rsp)
    8139:	e8 82 fe ff ff       	callq  7fc0 <_ZN4core3ops8function6FnOnce9call_once17hc667de8150710832E>
    813e:	48 83 c4 18          	add    $0x18,%rsp
    8142:	c3                   	retq   
    8143:	66 2e 0f 1f 84 00 00 	nopw   %cs:0x0(%rax,%rax,1)
    814a:	00 00 00 
    814d:	0f 1f 00             	nopl   (%rax)

0000000000008150 <_ZN5alloc7raw_vec19RawVec$LT$T$C$A$GT$14current_memory17h68372e68b13b9cfeE>:
    8150:	48 83 ec 20          	sub    $0x20,%rsp
    8154:	48 89 74 24 80       	mov    %rsi,-0x80(%rsp)
    8159:	48 89 7c 24 88       	mov    %rdi,-0x78(%rsp)
    815e:	48 89 7c 24 90       	mov    %rdi,-0x70(%rsp)
    8163:	48 89 74 24 d8       	mov    %rsi,-0x28(%rsp)
    8168:	31 c0                	xor    %eax,%eax
    816a:	a8 01                	test   $0x1,%al
    816c:	75 0b                	jne    8179 <_ZN5alloc7raw_vec19RawVec$LT$T$C$A$GT$14current_memory17h68372e68b13b9cfeE+0x29>
    816e:	48 8b 44 24 80       	mov    -0x80(%rsp),%rax
    8173:	48 83 38 00          	cmpq   $0x0,(%rax)
    8177:	75 12                	jne    818b <_ZN5alloc7raw_vec19RawVec$LT$T$C$A$GT$14current_memory17h68372e68b13b9cfeE+0x3b>
    8179:	48 8b 44 24 88       	mov    -0x78(%rsp),%rax
    817e:	48 c7 40 08 00 00 00 	movq   $0x0,0x8(%rax)
    8185:	00 
    8186:	e9 99 00 00 00       	jmpq   8224 <_ZN5alloc7raw_vec19RawVec$LT$T$C$A$GT$14current_memory17h68372e68b13b9cfeE+0xd4>
    818b:	48 8b 44 24 88       	mov    -0x78(%rsp),%rax
    8190:	48 8b 4c 24 80       	mov    -0x80(%rsp),%rcx
    8195:	48 c7 44 24 e0 04 00 	movq   $0x4,-0x20(%rsp)
    819c:	00 00 
    819e:	48 c7 44 24 e8 04 00 	movq   $0x4,-0x18(%rsp)
    81a5:	00 00 
    81a7:	48 8b 11             	mov    (%rcx),%rdx
    81aa:	48 89 54 24 f0       	mov    %rdx,-0x10(%rsp)
    81af:	48 c1 e2 02          	shl    $0x2,%rdx
    81b3:	48 89 54 24 f8       	mov    %rdx,-0x8(%rsp)
    81b8:	48 89 54 24 a0       	mov    %rdx,-0x60(%rsp)
    81bd:	48 c7 44 24 98 04 00 	movq   $0x4,-0x68(%rsp)
    81c4:	00 00 
    81c6:	48 8b 49 08          	mov    0x8(%rcx),%rcx
    81ca:	48 89 0c 24          	mov    %rcx,(%rsp)
    81ce:	48 89 4c 24 08       	mov    %rcx,0x8(%rsp)
    81d3:	48 89 4c 24 c8       	mov    %rcx,-0x38(%rsp)
    81d8:	48 89 4c 24 10       	mov    %rcx,0x10(%rsp)
    81dd:	48 89 4c 24 d0       	mov    %rcx,-0x30(%rsp)
    81e2:	48 89 4c 24 18       	mov    %rcx,0x18(%rsp)
    81e7:	48 89 4c 24 c0       	mov    %rcx,-0x40(%rsp)
    81ec:	48 8b 4c 24 c0       	mov    -0x40(%rsp),%rcx
    81f1:	48 89 4c 24 a8       	mov    %rcx,-0x58(%rsp)
    81f6:	48 8b 54 24 98       	mov    -0x68(%rsp),%rdx
    81fb:	48 8b 4c 24 a0       	mov    -0x60(%rsp),%rcx
    8200:	48 89 54 24 b0       	mov    %rdx,-0x50(%rsp)
    8205:	48 89 4c 24 b8       	mov    %rcx,-0x48(%rsp)
    820a:	48 8b 4c 24 a8       	mov    -0x58(%rsp),%rcx
    820f:	48 89 08             	mov    %rcx,(%rax)
    8212:	48 8b 4c 24 b0       	mov    -0x50(%rsp),%rcx
    8217:	48 89 48 08          	mov    %rcx,0x8(%rax)
    821b:	48 8b 4c 24 b8       	mov    -0x48(%rsp),%rcx
    8220:	48 89 48 10          	mov    %rcx,0x10(%rax)
    8224:	48 8b 44 24 90       	mov    -0x70(%rsp),%rax
    8229:	48 83 c4 20          	add    $0x20,%rsp
    822d:	c3                   	retq   
    822e:	66 90                	xchg   %ax,%ax

0000000000008230 <__rust_alloc>:
    8230:	e9 9b b1 01 00       	jmpq   233d0 <__rdl_alloc>
    8235:	66 2e 0f 1f 84 00 00 	nopw   %cs:0x0(%rax,%rax,1)
    823c:	00 00 00 
    823f:	90                   	nop

0000000000008240 <__rust_dealloc>:
    8240:	e9 db b1 01 00       	jmpq   23420 <__rdl_dealloc>
    8245:	66 2e 0f 1f 84 00 00 	nopw   %cs:0x0(%rax,%rax,1)
    824c:	00 00 00 
    824f:	90                   	nop

0000000000008250 <__rust_realloc>:
    8250:	e9 db b1 01 00       	jmpq   23430 <__rdl_realloc>
    8255:	66 2e 0f 1f 84 00 00 	nopw   %cs:0x0(%rax,%rax,1)
    825c:	00 00 00 
    825f:	90                   	nop

0000000000008260 <__rust_alloc_zeroed>:
    8260:	e9 6b b2 01 00       	jmpq   234d0 <__rdl_alloc_zeroed>
    8265:	66 2e 0f 1f 84 00 00 	nopw   %cs:0x0(%rax,%rax,1)
    826c:	00 00 00 
    826f:	90                   	nop

0000000000008270 <__rust_alloc_error_handler>:
    8270:	e9 7b e5 01 00       	jmpq   267f0 <__rg_oom>

0000000000008275 <c_out_of_bound>:
    8275:	f3 0f 1e fa          	endbr64 
    8279:	55                   	push   %rbp
    827a:	48 89 e5             	mov    %rsp,%rbp
    827d:	48 83 ec 30          	sub    $0x30,%rsp
    8281:	64 48 8b 04 25 28 00 	mov    %fs:0x28,%rax
    8288:	00 00 
    828a:	48 89 45 f8          	mov    %rax,-0x8(%rbp)
    828e:	31 c0                	xor    %eax,%eax
    8290:	c7 45 e0 01 00 00 00 	movl   $0x1,-0x20(%rbp)
    8297:	c7 45 e4 02 00 00 00 	movl   $0x2,-0x1c(%rbp)
    829e:	c7 45 e8 03 00 00 00 	movl   $0x3,-0x18(%rbp)
    82a5:	c7 45 ec 04 00 00 00 	movl   $0x4,-0x14(%rbp)
    82ac:	c7 45 f0 05 00 00 00 	movl   $0x5,-0x10(%rbp)
    82b3:	8b 45 f4             	mov    -0xc(%rbp),%eax
    82b6:	89 45 d4             	mov    %eax,-0x2c(%rbp)
    82b9:	8b 45 d4             	mov    -0x2c(%rbp),%eax
    82bc:	89 c6                	mov    %eax,%esi
    82be:	48 8d 3d 77 cd 03 00 	lea    0x3cd77(%rip),%rdi        # 4503c <_fini+0xb88>
    82c5:	b8 00 00 00 00       	mov    $0x0,%eax
    82ca:	e8 81 cd ff ff       	callq  5050 <printf@plt>
    82cf:	bf 0c 00 00 00       	mov    $0xc,%edi
    82d4:	e8 b7 cd ff ff       	callq  5090 <malloc@plt>
    82d9:	48 89 45 d8          	mov    %rax,-0x28(%rbp)
    82dd:	48 8b 45 d8          	mov    -0x28(%rbp),%rax
    82e1:	48 83 c0 0c          	add    $0xc,%rax
    82e5:	8b 00                	mov    (%rax),%eax
    82e7:	89 c6                	mov    %eax,%esi
    82e9:	48 8d 3d 4c cd 03 00 	lea    0x3cd4c(%rip),%rdi        # 4503c <_fini+0xb88>
    82f0:	b8 00 00 00 00       	mov    $0x0,%eax
    82f5:	e8 56 cd ff ff       	callq  5050 <printf@plt>
    82fa:	90                   	nop
    82fb:	48 8b 45 f8          	mov    -0x8(%rbp),%rax
    82ff:	64 48 33 04 25 28 00 	xor    %fs:0x28,%rax
    8306:	00 00 
    8308:	74 05                	je     830f <c_out_of_bound+0x9a>
    830a:	e8 31 cd ff ff       	callq  5040 <__stack_chk_fail@plt>
    830f:	c9                   	leaveq 
    8310:	c3                   	retq   

0000000000008311 <out_of_bound>:
    8311:	f3 0f 1e fa          	endbr64 
    8315:	55                   	push   %rbp
    8316:	48 89 e5             	mov    %rsp,%rbp
    8319:	48 83 ec 20          	sub    $0x20,%rsp
    831d:	48 89 7d e8          	mov    %rdi,-0x18(%rbp)
    8321:	48 8b 45 e8          	mov    -0x18(%rbp),%rax
    8325:	8b 40 0c             	mov    0xc(%rax),%eax
    8328:	89 45 fc             	mov    %eax,-0x4(%rbp)
    832b:	48 8b 45 e8          	mov    -0x18(%rbp),%rax
    832f:	48 83 c0 0c          	add    $0xc,%rax
    8333:	8b 00                	mov    (%rax),%eax
    8335:	89 c6                	mov    %eax,%esi
    8337:	48 8d 3d fe cc 03 00 	lea    0x3ccfe(%rip),%rdi        # 4503c <_fini+0xb88>
    833e:	b8 00 00 00 00       	mov    $0x0,%eax
    8343:	e8 08 cd ff ff       	callq  5050 <printf@plt>
    8348:	90                   	nop
    8349:	c9                   	leaveq 
    834a:	c3                   	retq   
    834b:	0f 1f 44 00 00       	nopl   0x0(%rax,%rax,1)

0000000000008350 <_ZN36_$LT$T$u20$as$u20$core..any..Any$GT$7type_id17h372023e52e528bbbE>:
    8350:	48 b8 9c e6 a5 e0 75 	movabs $0x2b0f5975e0a5e69c,%rax
    8357:	59 0f 2b 
    835a:	48 ba 2e 0c 76 bd 2b 	movabs $0xfddc0b2bbd760c2e,%rdx
    8361:	0b dc fd 
    8364:	c3                   	retq   
    8365:	66 2e 0f 1f 84 00 00 	nopw   %cs:0x0(%rax,%rax,1)
    836c:	00 00 00 
    836f:	90                   	nop

0000000000008370 <_ZN36_$LT$T$u20$as$u20$core..any..Any$GT$7type_id17h80cb7fd4f382c620E>:
    8370:	48 b8 c1 7b 1e cd 9c 	movabs $0xc1a2c89ccd1e7bc1,%rax
    8377:	c8 a2 c1 
    837a:	48 ba 64 ef b1 00 81 	movabs $0xfdbc168100b1ef64,%rdx
    8381:	16 bc fd 
    8384:	c3                   	retq   
    8385:	66 2e 0f 1f 84 00 00 	nopw   %cs:0x0(%rax,%rax,1)
    838c:	00 00 00 
    838f:	90                   	nop

0000000000008390 <_ZN36_$LT$T$u20$as$u20$core..any..Any$GT$7type_id17hc081e31422afeb6eE>:
    8390:	48 b8 f7 fb d0 b7 28 	movabs $0x15c3828b7d0fbf7,%rax
    8397:	38 5c 01 
    839a:	48 ba a6 d7 7e 25 bb 	movabs $0xc55552bb257ed7a6,%rdx
    83a1:	52 55 c5 
    83a4:	c3                   	retq   
    83a5:	66 2e 0f 1f 84 00 00 	nopw   %cs:0x0(%rax,%rax,1)
    83ac:	00 00 00 
    83af:	90                   	nop

00000000000083b0 <_ZN42_$LT$$RF$T$u20$as$u20$core..fmt..Debug$GT$3fmt17h04fe926738ad805cE>:
    83b0:	48 83 ec 18          	sub    $0x18,%rsp
    83b4:	48 89 f0             	mov    %rsi,%rax
    83b7:	48 8b 0f             	mov    (%rdi),%rcx
    83ba:	48 8b 09             	mov    (%rcx),%rcx
    83bd:	48 89 4c 24 10       	mov    %rcx,0x10(%rsp)
    83c2:	48 83 c1 18          	add    $0x18,%rcx
    83c6:	48 8d 15 e3 c4 04 00 	lea    0x4c4e3(%rip),%rdx        # 548b0 <__do_global_dtors_aux_fini_array_entry+0x4b8>
    83cd:	48 89 14 24          	mov    %rdx,(%rsp)
    83d1:	48 8d 35 50 ea 03 00 	lea    0x3ea50(%rip),%rsi        # 46e28 <str.5+0x228>
    83d8:	4c 8d 05 b1 c4 04 00 	lea    0x4c4b1(%rip),%r8        # 54890 <__do_global_dtors_aux_fini_array_entry+0x498>
    83df:	4c 8d 4c 24 10       	lea    0x10(%rsp),%r9
    83e4:	ba 08 00 00 00       	mov    $0x8,%edx
    83e9:	48 89 c7             	mov    %rax,%rdi
    83ec:	ff 15 46 eb 04 00    	callq  *0x4eb46(%rip)        # 56f38 <_GLOBAL_OFFSET_TABLE_+0x590>
    83f2:	48 83 c4 18          	add    $0x18,%rsp
    83f6:	c3                   	retq   
    83f7:	66 0f 1f 84 00 00 00 	nopw   0x0(%rax,%rax,1)
    83fe:	00 00 

0000000000008400 <_ZN42_$LT$$RF$T$u20$as$u20$core..fmt..Debug$GT$3fmt17h665431877e431469E>:
    8400:	48 8b 3f             	mov    (%rdi),%rdi
    8403:	8b 46 34             	mov    0x34(%rsi),%eax
    8406:	a8 10                	test   $0x10,%al
    8408:	75 0a                	jne    8414 <_ZN42_$LT$$RF$T$u20$as$u20$core..fmt..Debug$GT$3fmt17h665431877e431469E+0x14>
    840a:	a8 20                	test   $0x20,%al
    840c:	75 0c                	jne    841a <_ZN42_$LT$$RF$T$u20$as$u20$core..fmt..Debug$GT$3fmt17h665431877e431469E+0x1a>
    840e:	ff 25 ec e6 04 00    	jmpq   *0x4e6ec(%rip)        # 56b00 <_GLOBAL_OFFSET_TABLE_+0x158>
    8414:	ff 25 8e ea 04 00    	jmpq   *0x4ea8e(%rip)        # 56ea8 <_GLOBAL_OFFSET_TABLE_+0x500>
    841a:	ff 25 80 e7 04 00    	jmpq   *0x4e780(%rip)        # 56ba0 <_GLOBAL_OFFSET_TABLE_+0x1f8>

0000000000008420 <_ZN42_$LT$$RF$T$u20$as$u20$core..fmt..Debug$GT$3fmt17h7bbfe86b149ee4ecE>:
    8420:	55                   	push   %rbp
    8421:	41 57                	push   %r15
    8423:	41 56                	push   %r14
    8425:	41 55                	push   %r13
    8427:	41 54                	push   %r12
    8429:	53                   	push   %rbx
    842a:	48 83 ec 18          	sub    $0x18,%rsp
    842e:	48 8b 07             	mov    (%rdi),%rax
    8431:	4c 8b 60 08          	mov    0x8(%rax),%r12
    8435:	4c 8b 68 10          	mov    0x10(%rax),%r13
    8439:	48 8d 7c 24 08       	lea    0x8(%rsp),%rdi
    843e:	ff 15 ec e7 04 00    	callq  *0x4e7ec(%rip)        # 56c30 <_GLOBAL_OFFSET_TABLE_+0x288>
    8444:	4d 85 ed             	test   %r13,%r13
    8447:	74 2e                	je     8477 <_ZN42_$LT$$RF$T$u20$as$u20$core..fmt..Debug$GT$3fmt17h7bbfe86b149ee4ecE+0x57>
    8449:	48 8d 1d 38 c0 04 00 	lea    0x4c038(%rip),%rbx        # 54488 <__do_global_dtors_aux_fini_array_entry+0x90>
    8450:	4c 8d 74 24 08       	lea    0x8(%rsp),%r14
    8455:	49 89 e7             	mov    %rsp,%r15
    8458:	48 8d 2d f1 87 03 00 	lea    0x387f1(%rip),%rbp        # 40c50 <_ZN4core3fmt8builders8DebugSet5entry17hcd5e3a0175dd708dE>
    845f:	90                   	nop
    8460:	4c 89 24 24          	mov    %r12,(%rsp)
    8464:	49 ff c4             	inc    %r12
    8467:	4c 89 f7             	mov    %r14,%rdi
    846a:	4c 89 fe             	mov    %r15,%rsi
    846d:	48 89 da             	mov    %rbx,%rdx
    8470:	ff d5                	callq  *%rbp
    8472:	49 ff cd             	dec    %r13
    8475:	75 e9                	jne    8460 <_ZN42_$LT$$RF$T$u20$as$u20$core..fmt..Debug$GT$3fmt17h7bbfe86b149ee4ecE+0x40>
    8477:	48 8d 7c 24 08       	lea    0x8(%rsp),%rdi
    847c:	ff 15 3e e7 04 00    	callq  *0x4e73e(%rip)        # 56bc0 <_GLOBAL_OFFSET_TABLE_+0x218>
    8482:	48 83 c4 18          	add    $0x18,%rsp
    8486:	5b                   	pop    %rbx
    8487:	41 5c                	pop    %r12
    8489:	41 5d                	pop    %r13
    848b:	41 5e                	pop    %r14
    848d:	41 5f                	pop    %r15
    848f:	5d                   	pop    %rbp
    8490:	c3                   	retq   
    8491:	66 2e 0f 1f 84 00 00 	nopw   %cs:0x0(%rax,%rax,1)
    8498:	00 00 00 
    849b:	0f 1f 44 00 00       	nopl   0x0(%rax,%rax,1)

00000000000084a0 <_ZN42_$LT$$RF$T$u20$as$u20$core..fmt..Debug$GT$3fmt17h8615d465f31c86feE>:
    84a0:	48 8b 3f             	mov    (%rdi),%rdi
    84a3:	8b 46 34             	mov    0x34(%rsi),%eax
    84a6:	a8 10                	test   $0x10,%al
    84a8:	75 0a                	jne    84b4 <_ZN42_$LT$$RF$T$u20$as$u20$core..fmt..Debug$GT$3fmt17h8615d465f31c86feE+0x14>
    84aa:	a8 20                	test   $0x20,%al
    84ac:	75 0c                	jne    84ba <_ZN42_$LT$$RF$T$u20$as$u20$core..fmt..Debug$GT$3fmt17h8615d465f31c86feE+0x1a>
    84ae:	ff 25 2c e6 04 00    	jmpq   *0x4e62c(%rip)        # 56ae0 <_GLOBAL_OFFSET_TABLE_+0x138>
    84b4:	ff 25 9e e6 04 00    	jmpq   *0x4e69e(%rip)        # 56b58 <_GLOBAL_OFFSET_TABLE_+0x1b0>
    84ba:	ff 25 88 e9 04 00    	jmpq   *0x4e988(%rip)        # 56e48 <_GLOBAL_OFFSET_TABLE_+0x4a0>

00000000000084c0 <_ZN42_$LT$$RF$T$u20$as$u20$core..fmt..Debug$GT$3fmt17hd56cef18fb9644c4E>:
    84c0:	48 89 f7             	mov    %rsi,%rdi
    84c3:	48 8d 35 56 e4 03 00 	lea    0x3e456(%rip),%rsi        # 46920 <_fini+0x246c>
    84ca:	ba 02 00 00 00       	mov    $0x2,%edx
    84cf:	ff 25 ab e6 04 00    	jmpq   *0x4e6ab(%rip)        # 56b80 <_GLOBAL_OFFSET_TABLE_+0x1d8>
    84d5:	66 2e 0f 1f 84 00 00 	nopw   %cs:0x0(%rax,%rax,1)
    84dc:	00 00 00 
    84df:	90                   	nop

00000000000084e0 <_ZN44_$LT$$RF$T$u20$as$u20$core..fmt..Display$GT$3fmt17h2af58ce14a6e279aE>:
    84e0:	48 8b 3f             	mov    (%rdi),%rdi
    84e3:	ff 25 47 ea 04 00    	jmpq   *0x4ea47(%rip)        # 56f30 <_GLOBAL_OFFSET_TABLE_+0x588>
    84e9:	0f 1f 80 00 00 00 00 	nopl   0x0(%rax)

00000000000084f0 <_ZN44_$LT$$RF$T$u20$as$u20$core..fmt..Display$GT$3fmt17h80d6dc6405a1163bE>:
    84f0:	48 89 f2             	mov    %rsi,%rdx
    84f3:	48 8b 07             	mov    (%rdi),%rax
    84f6:	48 8b 77 08          	mov    0x8(%rdi),%rsi
    84fa:	48 89 c7             	mov    %rax,%rdi
    84fd:	ff 25 fd e6 04 00    	jmpq   *0x4e6fd(%rip)        # 56c00 <_GLOBAL_OFFSET_TABLE_+0x258>
    8503:	66 2e 0f 1f 84 00 00 	nopw   %cs:0x0(%rax,%rax,1)
    850a:	00 00 00 
    850d:	0f 1f 00             	nopl   (%rax)

0000000000008510 <_ZN4core3fmt3num52_$LT$impl$u20$core..fmt..Debug$u20$for$u20$usize$GT$3fmt17hd3d60cf52757f678E>:
    8510:	8b 46 34             	mov    0x34(%rsi),%eax
    8513:	a8 10                	test   $0x10,%al
    8515:	75 0a                	jne    8521 <_ZN4core3fmt3num52_$LT$impl$u20$core..fmt..Debug$u20$for$u20$usize$GT$3fmt17hd3d60cf52757f678E+0x11>
    8517:	a8 20                	test   $0x20,%al
    8519:	75 0c                	jne    8527 <_ZN4core3fmt3num52_$LT$impl$u20$core..fmt..Debug$u20$for$u20$usize$GT$3fmt17hd3d60cf52757f678E+0x17>
    851b:	ff 25 47 e7 04 00    	jmpq   *0x4e747(%rip)        # 56c68 <_GLOBAL_OFFSET_TABLE_+0x2c0>
    8521:	ff 25 19 e5 04 00    	jmpq   *0x4e519(%rip)        # 56a40 <_GLOBAL_OFFSET_TABLE_+0x98>
    8527:	ff 25 8b ea 04 00    	jmpq   *0x4ea8b(%rip)        # 56fb8 <_GLOBAL_OFFSET_TABLE_+0x610>
    852d:	0f 1f 00             	nopl   (%rax)

0000000000008530 <_ZN4core3fmt5Write10write_char17h441d807dd4d183e6E>:
    8530:	50                   	push   %rax
    8531:	c7 44 24 04 00 00 00 	movl   $0x0,0x4(%rsp)
    8538:	00 
    8539:	81 fe 80 00 00 00    	cmp    $0x80,%esi
    853f:	73 16                	jae    8557 <_ZN4core3fmt5Write10write_char17h441d807dd4d183e6E+0x27>
    8541:	40 88 74 24 04       	mov    %sil,0x4(%rsp)
    8546:	ba 01 00 00 00       	mov    $0x1,%edx
    854b:	48 8d 74 24 04       	lea    0x4(%rsp),%rsi
    8550:	e8 6b 86 01 00       	callq  20bc0 <_ZN80_$LT$std..io..Write..write_fmt..Adapter$LT$T$GT$$u20$as$u20$core..fmt..Write$GT$9write_str17h5638f2df3cff1dffE>
    8555:	59                   	pop    %rcx
    8556:	c3                   	retq   
    8557:	89 f0                	mov    %esi,%eax
    8559:	81 fe 00 08 00 00    	cmp    $0x800,%esi
    855f:	73 27                	jae    8588 <_ZN4core3fmt5Write10write_char17h441d807dd4d183e6E+0x58>
    8561:	c1 e8 06             	shr    $0x6,%eax
    8564:	0c c0                	or     $0xc0,%al
    8566:	88 44 24 04          	mov    %al,0x4(%rsp)
    856a:	40 80 e6 3f          	and    $0x3f,%sil
    856e:	40 80 ce 80          	or     $0x80,%sil
    8572:	40 88 74 24 05       	mov    %sil,0x5(%rsp)
    8577:	ba 02 00 00 00       	mov    $0x2,%edx
    857c:	48 8d 74 24 04       	lea    0x4(%rsp),%rsi
    8581:	e8 3a 86 01 00       	callq  20bc0 <_ZN80_$LT$std..io..Write..write_fmt..Adapter$LT$T$GT$$u20$as$u20$core..fmt..Write$GT$9write_str17h5638f2df3cff1dffE>
    8586:	59                   	pop    %rcx
    8587:	c3                   	retq   
    8588:	81 fe 00 00 01 00    	cmp    $0x10000,%esi
    858e:	73 34                	jae    85c4 <_ZN4core3fmt5Write10write_char17h441d807dd4d183e6E+0x94>
    8590:	c1 e8 0c             	shr    $0xc,%eax
    8593:	0c e0                	or     $0xe0,%al
    8595:	88 44 24 04          	mov    %al,0x4(%rsp)
    8599:	89 f0                	mov    %esi,%eax
    859b:	c1 e8 06             	shr    $0x6,%eax
    859e:	24 3f                	and    $0x3f,%al
    85a0:	0c 80                	or     $0x80,%al
    85a2:	88 44 24 05          	mov    %al,0x5(%rsp)
    85a6:	40 80 e6 3f          	and    $0x3f,%sil
    85aa:	40 80 ce 80          	or     $0x80,%sil
    85ae:	40 88 74 24 06       	mov    %sil,0x6(%rsp)
    85b3:	ba 03 00 00 00       	mov    $0x3,%edx
    85b8:	48 8d 74 24 04       	lea    0x4(%rsp),%rsi
    85bd:	e8 fe 85 01 00       	callq  20bc0 <_ZN80_$LT$std..io..Write..write_fmt..Adapter$LT$T$GT$$u20$as$u20$core..fmt..Write$GT$9write_str17h5638f2df3cff1dffE>
    85c2:	59                   	pop    %rcx
    85c3:	c3                   	retq   
    85c4:	c1 e8 12             	shr    $0x12,%eax
    85c7:	24 07                	and    $0x7,%al
    85c9:	0c f0                	or     $0xf0,%al
    85cb:	88 44 24 04          	mov    %al,0x4(%rsp)
    85cf:	89 f0                	mov    %esi,%eax
    85d1:	c1 e8 0c             	shr    $0xc,%eax
    85d4:	24 3f                	and    $0x3f,%al
    85d6:	0c 80                	or     $0x80,%al
    85d8:	88 44 24 05          	mov    %al,0x5(%rsp)
    85dc:	89 f0                	mov    %esi,%eax
    85de:	c1 e8 06             	shr    $0x6,%eax
    85e1:	24 3f                	and    $0x3f,%al
    85e3:	0c 80                	or     $0x80,%al
    85e5:	88 44 24 06          	mov    %al,0x6(%rsp)
    85e9:	40 80 e6 3f          	and    $0x3f,%sil
    85ed:	40 80 ce 80          	or     $0x80,%sil
    85f1:	40 88 74 24 07       	mov    %sil,0x7(%rsp)
    85f6:	ba 04 00 00 00       	mov    $0x4,%edx
    85fb:	48 8d 74 24 04       	lea    0x4(%rsp),%rsi
    8600:	e8 bb 85 01 00       	callq  20bc0 <_ZN80_$LT$std..io..Write..write_fmt..Adapter$LT$T$GT$$u20$as$u20$core..fmt..Write$GT$9write_str17h5638f2df3cff1dffE>
    8605:	59                   	pop    %rcx
    8606:	c3                   	retq   
    8607:	66 0f 1f 84 00 00 00 	nopw   0x0(%rax,%rax,1)
    860e:	00 00 

0000000000008610 <_ZN4core3fmt5Write10write_char17hfe95f1d37b663b91E>:
    8610:	41 57                	push   %r15
    8612:	41 56                	push   %r14
    8614:	53                   	push   %rbx
    8615:	48 83 ec 10          	sub    $0x10,%rsp
    8619:	c7 44 24 0c 00 00 00 	movl   $0x0,0xc(%rsp)
    8620:	00 
    8621:	81 fe 80 00 00 00    	cmp    $0x80,%esi
    8627:	73 0f                	jae    8638 <_ZN4core3fmt5Write10write_char17hfe95f1d37b663b91E+0x28>
    8629:	40 88 74 24 0c       	mov    %sil,0xc(%rsp)
    862e:	bb 01 00 00 00       	mov    $0x1,%ebx
    8633:	e9 90 00 00 00       	jmpq   86c8 <_ZN4core3fmt5Write10write_char17hfe95f1d37b663b91E+0xb8>
    8638:	89 f0                	mov    %esi,%eax
    863a:	81 fe 00 08 00 00    	cmp    $0x800,%esi
    8640:	73 1d                	jae    865f <_ZN4core3fmt5Write10write_char17hfe95f1d37b663b91E+0x4f>
    8642:	c1 e8 06             	shr    $0x6,%eax
    8645:	0c c0                	or     $0xc0,%al
    8647:	88 44 24 0c          	mov    %al,0xc(%rsp)
    864b:	40 80 e6 3f          	and    $0x3f,%sil
    864f:	40 80 ce 80          	or     $0x80,%sil
    8653:	40 88 74 24 0d       	mov    %sil,0xd(%rsp)
    8658:	bb 02 00 00 00       	mov    $0x2,%ebx
    865d:	eb 69                	jmp    86c8 <_ZN4core3fmt5Write10write_char17hfe95f1d37b663b91E+0xb8>
    865f:	81 fe 00 00 01 00    	cmp    $0x10000,%esi
    8665:	73 2a                	jae    8691 <_ZN4core3fmt5Write10write_char17hfe95f1d37b663b91E+0x81>
    8667:	c1 e8 0c             	shr    $0xc,%eax
    866a:	0c e0                	or     $0xe0,%al
    866c:	88 44 24 0c          	mov    %al,0xc(%rsp)
    8670:	89 f0                	mov    %esi,%eax
    8672:	c1 e8 06             	shr    $0x6,%eax
    8675:	24 3f                	and    $0x3f,%al
    8677:	0c 80                	or     $0x80,%al
    8679:	88 44 24 0d          	mov    %al,0xd(%rsp)
    867d:	40 80 e6 3f          	and    $0x3f,%sil
    8681:	40 80 ce 80          	or     $0x80,%sil
    8685:	40 88 74 24 0e       	mov    %sil,0xe(%rsp)
    868a:	bb 03 00 00 00       	mov    $0x3,%ebx
    868f:	eb 37                	jmp    86c8 <_ZN4core3fmt5Write10write_char17hfe95f1d37b663b91E+0xb8>
    8691:	c1 e8 12             	shr    $0x12,%eax
    8694:	24 07                	and    $0x7,%al
    8696:	0c f0                	or     $0xf0,%al
    8698:	88 44 24 0c          	mov    %al,0xc(%rsp)
    869c:	89 f0                	mov    %esi,%eax
    869e:	c1 e8 0c             	shr    $0xc,%eax
    86a1:	24 3f                	and    $0x3f,%al
    86a3:	0c 80                	or     $0x80,%al
    86a5:	88 44 24 0d          	mov    %al,0xd(%rsp)
    86a9:	89 f0                	mov    %esi,%eax
    86ab:	c1 e8 06             	shr    $0x6,%eax
    86ae:	24 3f                	and    $0x3f,%al
    86b0:	0c 80                	or     $0x80,%al
    86b2:	88 44 24 0e          	mov    %al,0xe(%rsp)
    86b6:	40 80 e6 3f          	and    $0x3f,%sil
    86ba:	40 80 ce 80          	or     $0x80,%sil
    86be:	40 88 74 24 0f       	mov    %sil,0xf(%rsp)
    86c3:	bb 04 00 00 00       	mov    $0x4,%ebx
    86c8:	4c 8b 37             	mov    (%rdi),%r14
    86cb:	49 8b 06             	mov    (%r14),%rax
    86ce:	4d 8b 7e 10          	mov    0x10(%r14),%r15
    86d2:	4c 29 f8             	sub    %r15,%rax
    86d5:	48 39 d8             	cmp    %rbx,%rax
    86d8:	72 28                	jb     8702 <_ZN4core3fmt5Write10write_char17hfe95f1d37b663b91E+0xf2>
    86da:	49 8b 7e 08          	mov    0x8(%r14),%rdi
    86de:	4c 01 ff             	add    %r15,%rdi
    86e1:	48 8d 74 24 0c       	lea    0xc(%rsp),%rsi
    86e6:	48 89 da             	mov    %rbx,%rdx
    86e9:	ff 15 61 e6 04 00    	callq  *0x4e661(%rip)        # 56d50 <memcpy@GLIBC_2.14>
    86ef:	49 01 df             	add    %rbx,%r15
    86f2:	4d 89 7e 10          	mov    %r15,0x10(%r14)
    86f6:	31 c0                	xor    %eax,%eax
    86f8:	48 83 c4 10          	add    $0x10,%rsp
    86fc:	5b                   	pop    %rbx
    86fd:	41 5e                	pop    %r14
    86ff:	41 5f                	pop    %r15
    8701:	c3                   	retq   
    8702:	4c 89 f7             	mov    %r14,%rdi
    8705:	4c 89 fe             	mov    %r15,%rsi
    8708:	48 89 da             	mov    %rbx,%rdx
    870b:	e8 00 d4 ff ff       	callq  5b10 <_ZN5alloc7raw_vec19RawVec$LT$T$C$A$GT$7reserve21do_reserve_and_handle17h3944e0aa76e56cd8E>
    8710:	4d 8b 7e 10          	mov    0x10(%r14),%r15
    8714:	eb c4                	jmp    86da <_ZN4core3fmt5Write10write_char17hfe95f1d37b663b91E+0xca>
    8716:	66 2e 0f 1f 84 00 00 	nopw   %cs:0x0(%rax,%rax,1)
    871d:	00 00 00 

0000000000008720 <_ZN4core3fmt5Write9write_fmt17h98273d1dbdba0aecE>:
    8720:	48 89 f2             	mov    %rsi,%rdx
    8723:	48 8d 35 e6 c1 04 00 	lea    0x4c1e6(%rip),%rsi        # 54910 <__do_global_dtors_aux_fini_array_entry+0x518>
    872a:	ff 25 90 e6 04 00    	jmpq   *0x4e690(%rip)        # 56dc0 <_GLOBAL_OFFSET_TABLE_+0x418>

0000000000008730 <_ZN4core3fmt5Write9write_fmt17ha1b93138520397c5E>:
    8730:	48 89 f2             	mov    %rsi,%rdx
    8733:	48 8d 35 06 c2 04 00 	lea    0x4c206(%rip),%rsi        # 54940 <__do_global_dtors_aux_fini_array_entry+0x548>
    873a:	ff 25 80 e6 04 00    	jmpq   *0x4e680(%rip)        # 56dc0 <_GLOBAL_OFFSET_TABLE_+0x418>

0000000000008740 <_ZN4core3fmt5Write9write_fmt17hf360116ce27f2015E>:
    8740:	48 89 f2             	mov    %rsi,%rdx
    8743:	48 8d 35 0e bd 04 00 	lea    0x4bd0e(%rip),%rsi        # 54458 <__do_global_dtors_aux_fini_array_entry+0x60>
    874a:	ff 25 70 e6 04 00    	jmpq   *0x4e670(%rip)        # 56dc0 <_GLOBAL_OFFSET_TABLE_+0x418>

0000000000008750 <_ZN4core3ops8function6FnOnce40call_once$u7b$$u7b$vtable.shim$u7d$$u7d$17h2eb5fa79c80a2a92E>:
    8750:	48 8b 07             	mov    (%rdi),%rax
    8753:	48 8b 38             	mov    (%rax),%rdi
    8756:	ff 25 f4 e3 04 00    	jmpq   *0x4e3f4(%rip)        # 56b50 <_Unwind_GetTextRelBase@GCC_3.0>
    875c:	0f 1f 40 00          	nopl   0x0(%rax)

0000000000008760 <_ZN4core3ops8function6FnOnce40call_once$u7b$$u7b$vtable.shim$u7d$$u7d$17h5c859dd4d0c2c874E>:
    8760:	e9 8b a3 01 00       	jmpq   22af0 <_ZN3std10sys_common9backtrace10_print_fmt28_$u7b$$u7b$closure$u7d$$u7d$28_$u7b$$u7b$closure$u7d$$u7d$17he90b29162ce1ac5aE>
    8765:	66 2e 0f 1f 84 00 00 	nopw   %cs:0x0(%rax,%rax,1)
    876c:	00 00 00 
    876f:	90                   	nop

0000000000008770 <_ZN4core3ops8function6FnOnce40call_once$u7b$$u7b$vtable.shim$u7d$$u7d$17h61d34a6d48a9fc84E>:
    8770:	55                   	push   %rbp
    8771:	41 56                	push   %r14
    8773:	53                   	push   %rbx
    8774:	48 83 ec 20          	sub    $0x20,%rsp
    8778:	48 89 f0             	mov    %rsi,%rax
    877b:	48 89 fb             	mov    %rdi,%rbx
    877e:	48 8d 74 24 08       	lea    0x8(%rsp),%rsi
    8783:	48 8b 4a 10          	mov    0x10(%rdx),%rcx
    8787:	48 89 4c 24 18       	mov    %rcx,0x18(%rsp)
    878c:	0f 10 02             	movups (%rdx),%xmm0
    878f:	0f 11 44 24 08       	movups %xmm0,0x8(%rsp)
    8794:	48 89 04 24          	mov    %rax,(%rsp)
    8798:	4c 8b 37             	mov    (%rdi),%r14
    879b:	31 c9                	xor    %ecx,%ecx
    879d:	48 ba 00 00 00 00 00 	movabs $0x8000000000000000,%rdx
    87a4:	00 00 80 
    87a7:	49 39 d6             	cmp    %rdx,%r14
    87aa:	48 0f 45 cf          	cmovne %rdi,%rcx
    87ae:	8b 57 18             	mov    0x18(%rdi),%edx
    87b1:	48 89 c7             	mov    %rax,%rdi
    87b4:	e8 e7 a5 01 00       	callq  22da0 <_ZN3std10sys_common9backtrace15output_filename17hb6fe1ff23814c10cE>
    87b9:	89 c5                	mov    %eax,%ebp
    87bb:	4a 8d 04 75 00 00 00 	lea    0x0(,%r14,2),%rax
    87c2:	00 
    87c3:	48 85 c0             	test   %rax,%rax
    87c6:	74 12                	je     87da <_ZN4core3ops8function6FnOnce40call_once$u7b$$u7b$vtable.shim$u7d$$u7d$17h61d34a6d48a9fc84E+0x6a>
    87c8:	48 8b 7b 08          	mov    0x8(%rbx),%rdi
    87cc:	ba 01 00 00 00       	mov    $0x1,%edx
    87d1:	4c 89 f6             	mov    %r14,%rsi
    87d4:	ff 15 66 e4 04 00    	callq  *0x4e466(%rip)        # 56c40 <_GLOBAL_OFFSET_TABLE_+0x298>
    87da:	89 e8                	mov    %ebp,%eax
    87dc:	48 83 c4 20          	add    $0x20,%rsp
    87e0:	5b                   	pop    %rbx
    87e1:	41 5e                	pop    %r14
    87e3:	5d                   	pop    %rbp
    87e4:	c3                   	retq   
    87e5:	49 89 c6             	mov    %rax,%r14
    87e8:	48 8b 33             	mov    (%rbx),%rsi
    87eb:	48 8d 04 75 00 00 00 	lea    0x0(,%rsi,2),%rax
    87f2:	00 
    87f3:	48 85 c0             	test   %rax,%rax
    87f6:	74 0f                	je     8807 <_ZN4core3ops8function6FnOnce40call_once$u7b$$u7b$vtable.shim$u7d$$u7d$17h61d34a6d48a9fc84E+0x97>
    87f8:	48 8b 7b 08          	mov    0x8(%rbx),%rdi
    87fc:	ba 01 00 00 00       	mov    $0x1,%edx
    8801:	ff 15 39 e4 04 00    	callq  *0x4e439(%rip)        # 56c40 <_GLOBAL_OFFSET_TABLE_+0x298>
    8807:	4c 89 f7             	mov    %r14,%rdi
    880a:	e8 71 c8 ff ff       	callq  5080 <_Unwind_Resume@plt>
    880f:	90                   	nop

0000000000008810 <_ZN4core3ops8function6FnOnce40call_once$u7b$$u7b$vtable.shim$u7d$$u7d$17hede2904a72abd2f5E>:
    8810:	48 8b 07             	mov    (%rdi),%rax
    8813:	48 8b 38             	mov    (%rax),%rdi
    8816:	ff 25 24 e6 04 00    	jmpq   *0x4e624(%rip)        # 56e40 <_Unwind_GetDataRelBase@GCC_3.0>
    881c:	0f 1f 40 00          	nopl   0x0(%rax)

0000000000008820 <_ZN4core3ops8function6FnOnce40call_once$u7b$$u7b$vtable.shim$u7d$$u7d$17hf3fd9284a14452a7E>:
    8820:	e9 7b a1 01 00       	jmpq   229a0 <_ZN3std10sys_common9backtrace10_print_fmt28_$u7b$$u7b$closure$u7d$$u7d$17hf9e358e631eb0e8bE>
    8825:	66 2e 0f 1f 84 00 00 	nopw   %cs:0x0(%rax,%rax,1)
    882c:	00 00 00 
    882f:	90                   	nop

0000000000008830 <_ZN4core3ops8function6FnOnce9call_once17h8aba104e28988e70E>:
    8830:	50                   	push   %rax
    8831:	e8 1a 66 01 00       	callq  1ee50 <_ZN3std2rt19lang_start_internal28_$u7b$$u7b$closure$u7d$$u7d$17had0264f4a5fc0cd1E>
    8836:	66 2e 0f 1f 84 00 00 	nopw   %cs:0x0(%rax,%rax,1)
    883d:	00 00 00 

0000000000008840 <_ZN4core3ptr107drop_in_place$LT$std..backtrace..lazy_resolve..$u7b$$u7b$closure$u7d$$u7d$..$u7b$$u7b$closure$u7d$$u7d$$GT$17h7a1a53d783339388E>:
    8840:	c3                   	retq   
    8841:	66 2e 0f 1f 84 00 00 	nopw   %cs:0x0(%rax,%rax,1)
    8848:	00 00 00 
    884b:	0f 1f 44 00 00       	nopl   0x0(%rax,%rax,1)

0000000000008850 <_ZN4core3ptr108drop_in_place$LT$alloc..collections..btree..map..BTreeMap$LT$u64$C$gimli..read..abbrev..Abbreviation$GT$$GT$17hf80ac08db4fff0ccE>:
    8850:	41 57                	push   %r15
    8852:	41 56                	push   %r14
    8854:	53                   	push   %rbx
    8855:	48 83 ec 60          	sub    $0x60,%rsp
    8859:	48 8b 0f             	mov    (%rdi),%rcx
    885c:	48 85 c9             	test   %rcx,%rcx
    885f:	74 35                	je     8896 <_ZN4core3ptr108drop_in_place$LT$alloc..collections..btree..map..BTreeMap$LT$u64$C$gimli..read..abbrev..Abbreviation$GT$$GT$17hf80ac08db4fff0ccE+0x46>
    8861:	48 8b 57 08          	mov    0x8(%rdi),%rdx
    8865:	48 8b 47 10          	mov    0x10(%rdi),%rax
    8869:	48 c7 44 24 20 00 00 	movq   $0x0,0x20(%rsp)
    8870:	00 00 
    8872:	48 89 4c 24 28       	mov    %rcx,0x28(%rsp)
    8877:	48 89 54 24 30       	mov    %rdx,0x30(%rsp)
    887c:	48 c7 44 24 40 00 00 	movq   $0x0,0x40(%rsp)
    8883:	00 00 
    8885:	48 89 4c 24 48       	mov    %rcx,0x48(%rsp)
    888a:	48 89 54 24 50       	mov    %rdx,0x50(%rsp)
    888f:	b9 01 00 00 00       	mov    $0x1,%ecx
    8894:	eb 04                	jmp    889a <_ZN4core3ptr108drop_in_place$LT$alloc..collections..btree..map..BTreeMap$LT$u64$C$gimli..read..abbrev..Abbreviation$GT$$GT$17hf80ac08db4fff0ccE+0x4a>
    8896:	31 c9                	xor    %ecx,%ecx
    8898:	31 c0                	xor    %eax,%eax
    889a:	48 89 4c 24 18       	mov    %rcx,0x18(%rsp)
    889f:	48 89 4c 24 38       	mov    %rcx,0x38(%rsp)
    88a4:	48 89 44 24 58       	mov    %rax,0x58(%rsp)
    88a9:	48 89 e7             	mov    %rsp,%rdi
    88ac:	48 8d 74 24 18       	lea    0x18(%rsp),%rsi
    88b1:	e8 7a 35 00 00       	callq  be30 <_ZN5alloc11collections5btree3map25IntoIter$LT$K$C$V$C$A$GT$10dying_next17hdcb51ff481132038E>
    88b6:	48 8b 04 24          	mov    (%rsp),%rax
    88ba:	48 85 c0             	test   %rax,%rax
    88bd:	74 50                	je     890f <_ZN4core3ptr108drop_in_place$LT$alloc..collections..btree..map..BTreeMap$LT$u64$C$gimli..read..abbrev..Abbreviation$GT$$GT$17hf80ac08db4fff0ccE+0xbf>
    88bf:	48 89 e3             	mov    %rsp,%rbx
    88c2:	4c 8d 74 24 18       	lea    0x18(%rsp),%r14
    88c7:	4c 8d 3d 72 f9 ff ff 	lea    -0x68e(%rip),%r15        # 8240 <__rust_dealloc>
    88ce:	eb 14                	jmp    88e4 <_ZN4core3ptr108drop_in_place$LT$alloc..collections..btree..map..BTreeMap$LT$u64$C$gimli..read..abbrev..Abbreviation$GT$$GT$17hf80ac08db4fff0ccE+0x94>
    88d0:	48 89 df             	mov    %rbx,%rdi
    88d3:	4c 89 f6             	mov    %r14,%rsi
    88d6:	e8 55 35 00 00       	callq  be30 <_ZN5alloc11collections5btree3map25IntoIter$LT$K$C$V$C$A$GT$10dying_next17hdcb51ff481132038E>
    88db:	48 8b 04 24          	mov    (%rsp),%rax
    88df:	48 85 c0             	test   %rax,%rax
    88e2:	74 2b                	je     890f <_ZN4core3ptr108drop_in_place$LT$alloc..collections..btree..map..BTreeMap$LT$u64$C$gimli..read..abbrev..Abbreviation$GT$$GT$17hf80ac08db4fff0ccE+0xbf>
    88e4:	48 6b 4c 24 10 70    	imul   $0x70,0x10(%rsp),%rcx
    88ea:	48 83 3c 08 00       	cmpq   $0x0,(%rax,%rcx,1)
    88ef:	74 df                	je     88d0 <_ZN4core3ptr108drop_in_place$LT$alloc..collections..btree..map..BTreeMap$LT$u64$C$gimli..read..abbrev..Abbreviation$GT$$GT$17hf80ac08db4fff0ccE+0x80>
    88f1:	48 01 c8             	add    %rcx,%rax
    88f4:	48 8b 70 08          	mov    0x8(%rax),%rsi
    88f8:	48 85 f6             	test   %rsi,%rsi
    88fb:	74 d3                	je     88d0 <_ZN4core3ptr108drop_in_place$LT$alloc..collections..btree..map..BTreeMap$LT$u64$C$gimli..read..abbrev..Abbreviation$GT$$GT$17hf80ac08db4fff0ccE+0x80>
    88fd:	48 8b 78 10          	mov    0x10(%rax),%rdi
    8901:	48 c1 e6 04          	shl    $0x4,%rsi
    8905:	ba 08 00 00 00       	mov    $0x8,%edx
    890a:	41 ff d7             	callq  *%r15
    890d:	eb c1                	jmp    88d0 <_ZN4core3ptr108drop_in_place$LT$alloc..collections..btree..map..BTreeMap$LT$u64$C$gimli..read..abbrev..Abbreviation$GT$$GT$17hf80ac08db4fff0ccE+0x80>
    890f:	48 83 c4 60          	add    $0x60,%rsp
    8913:	5b                   	pop    %rbx
    8914:	41 5e                	pop    %r14
    8916:	41 5f                	pop    %r15
    8918:	c3                   	retq   
    8919:	0f 1f 80 00 00 00 00 	nopl   0x0(%rax)

0000000000008920 <_ZN4core3ptr111drop_in_place$LT$alloc..vec..Vec$LT$std..backtrace_rs..symbolize..gimli..parse_running_mmaps..MapsEntry$GT$$GT$17he8f7b184782d8751E>:
    8920:	41 57                	push   %r15
    8922:	41 56                	push   %r14
    8924:	41 55                	push   %r13
    8926:	41 54                	push   %r12
    8928:	53                   	push   %rbx
    8929:	49 89 fe             	mov    %rdi,%r14
    892c:	48 8b 5f 08          	mov    0x8(%rdi),%rbx
    8930:	4c 8b 7f 10          	mov    0x10(%rdi),%r15
    8934:	4d 85 ff             	test   %r15,%r15
    8937:	74 38                	je     8971 <_ZN4core3ptr111drop_in_place$LT$alloc..vec..Vec$LT$std..backtrace_rs..symbolize..gimli..parse_running_mmaps..MapsEntry$GT$$GT$17he8f7b184782d8751E+0x51>
    8939:	4c 8d 63 08          	lea    0x8(%rbx),%r12
    893d:	4c 8d 2d fc f8 ff ff 	lea    -0x704(%rip),%r13        # 8240 <__rust_dealloc>
    8944:	eb 13                	jmp    8959 <_ZN4core3ptr111drop_in_place$LT$alloc..vec..Vec$LT$std..backtrace_rs..symbolize..gimli..parse_running_mmaps..MapsEntry$GT$$GT$17he8f7b184782d8751E+0x39>
    8946:	66 2e 0f 1f 84 00 00 	nopw   %cs:0x0(%rax,%rax,1)
    894d:	00 00 00 
    8950:	49 83 c4 58          	add    $0x58,%r12
    8954:	49 ff cf             	dec    %r15
    8957:	74 18                	je     8971 <_ZN4core3ptr111drop_in_place$LT$alloc..vec..Vec$LT$std..backtrace_rs..symbolize..gimli..parse_running_mmaps..MapsEntry$GT$$GT$17he8f7b184782d8751E+0x51>
    8959:	49 8b 74 24 f8       	mov    -0x8(%r12),%rsi
    895e:	48 85 f6             	test   %rsi,%rsi
    8961:	74 ed                	je     8950 <_ZN4core3ptr111drop_in_place$LT$alloc..vec..Vec$LT$std..backtrace_rs..symbolize..gimli..parse_running_mmaps..MapsEntry$GT$$GT$17he8f7b184782d8751E+0x30>
    8963:	49 8b 3c 24          	mov    (%r12),%rdi
    8967:	ba 01 00 00 00       	mov    $0x1,%edx
    896c:	41 ff d5             	callq  *%r13
    896f:	eb df                	jmp    8950 <_ZN4core3ptr111drop_in_place$LT$alloc..vec..Vec$LT$std..backtrace_rs..symbolize..gimli..parse_running_mmaps..MapsEntry$GT$$GT$17he8f7b184782d8751E+0x30>
    8971:	49 8b 06             	mov    (%r14),%rax
    8974:	48 85 c0             	test   %rax,%rax
    8977:	74 1b                	je     8994 <_ZN4core3ptr111drop_in_place$LT$alloc..vec..Vec$LT$std..backtrace_rs..symbolize..gimli..parse_running_mmaps..MapsEntry$GT$$GT$17he8f7b184782d8751E+0x74>
    8979:	48 6b f0 58          	imul   $0x58,%rax,%rsi
    897d:	ba 08 00 00 00       	mov    $0x8,%edx
    8982:	48 89 df             	mov    %rbx,%rdi
    8985:	5b                   	pop    %rbx
    8986:	41 5c                	pop    %r12
    8988:	41 5d                	pop    %r13
    898a:	41 5e                	pop    %r14
    898c:	41 5f                	pop    %r15
    898e:	ff 25 ac e2 04 00    	jmpq   *0x4e2ac(%rip)        # 56c40 <_GLOBAL_OFFSET_TABLE_+0x298>
    8994:	5b                   	pop    %rbx
    8995:	41 5c                	pop    %r12
    8997:	41 5d                	pop    %r13
    8999:	41 5e                	pop    %r14
    899b:	41 5f                	pop    %r15
    899d:	c3                   	retq   
    899e:	66 90                	xchg   %ax,%ax

00000000000089a0 <_ZN4core3ptr123drop_in_place$LT$addr2line..Context$LT$gimli..read..endian_slice..EndianSlice$LT$gimli..endianity..LittleEndian$GT$$GT$$GT$17h1caee0108d4ec4dfE>:
    89a0:	55                   	push   %rbp
    89a1:	41 57                	push   %r15
    89a3:	41 56                	push   %r14
    89a5:	41 55                	push   %r13
    89a7:	41 54                	push   %r12
    89a9:	53                   	push   %rbx
    89aa:	50                   	push   %rax
    89ab:	48 89 fb             	mov    %rdi,%rbx
    89ae:	48 8b 07             	mov    (%rdi),%rax
    89b1:	f0 48 ff 08          	lock decq (%rax)
    89b5:	75 08                	jne    89bf <_ZN4core3ptr123drop_in_place$LT$addr2line..Context$LT$gimli..read..endian_slice..EndianSlice$LT$gimli..endianity..LittleEndian$GT$$GT$$GT$17h1caee0108d4ec4dfE+0x1f>
    89b7:	48 89 df             	mov    %rbx,%rdi
    89ba:	e8 d1 39 00 00       	callq  c390 <_ZN5alloc4sync16Arc$LT$T$C$A$GT$9drop_slow17h90b4c74512bbffa8E>
    89bf:	48 8b 73 10          	mov    0x10(%rbx),%rsi
    89c3:	48 85 f6             	test   %rsi,%rsi
    89c6:	74 13                	je     89db <_ZN4core3ptr123drop_in_place$LT$addr2line..Context$LT$gimli..read..endian_slice..EndianSlice$LT$gimli..endianity..LittleEndian$GT$$GT$$GT$17h1caee0108d4ec4dfE+0x3b>
    89c8:	48 8b 7b 08          	mov    0x8(%rbx),%rdi
    89cc:	48 c1 e6 05          	shl    $0x5,%rsi
    89d0:	ba 08 00 00 00       	mov    $0x8,%edx
    89d5:	ff 15 65 e2 04 00    	callq  *0x4e265(%rip)        # 56c40 <_GLOBAL_OFFSET_TABLE_+0x298>
    89db:	4c 8b 7b 18          	mov    0x18(%rbx),%r15
    89df:	4c 8b 6b 20          	mov    0x20(%rbx),%r13
    89e3:	bd 01 00 00 00       	mov    $0x1,%ebp
    89e8:	4c 89 ff             	mov    %r15,%rdi
    89eb:	0f 1f 44 00 00       	nopl   0x0(%rax,%rax,1)
    89f0:	4c 89 e8             	mov    %r13,%rax
    89f3:	48 01 e8             	add    %rbp,%rax
    89f6:	48 83 f8 01          	cmp    $0x1,%rax
    89fa:	74 14                	je     8a10 <_ZN4core3ptr123drop_in_place$LT$addr2line..Context$LT$gimli..read..endian_slice..EndianSlice$LT$gimli..endianity..LittleEndian$GT$$GT$$GT$17h1caee0108d4ec4dfE+0x70>
    89fc:	4c 8d a7 18 02 00 00 	lea    0x218(%rdi),%r12
    8a03:	48 ff cd             	dec    %rbp
    8a06:	e8 d5 00 00 00       	callq  8ae0 <_ZN4core3ptr123drop_in_place$LT$addr2line..ResUnit$LT$gimli..read..endian_slice..EndianSlice$LT$gimli..endianity..LittleEndian$GT$$GT$$GT$17h63f715e788973de2E>
    8a0b:	4c 89 e7             	mov    %r12,%rdi
    8a0e:	eb e0                	jmp    89f0 <_ZN4core3ptr123drop_in_place$LT$addr2line..Context$LT$gimli..read..endian_slice..EndianSlice$LT$gimli..endianity..LittleEndian$GT$$GT$$GT$17h1caee0108d4ec4dfE+0x50>
    8a10:	4d 85 ed             	test   %r13,%r13
    8a13:	74 15                	je     8a2a <_ZN4core3ptr123drop_in_place$LT$addr2line..Context$LT$gimli..read..endian_slice..EndianSlice$LT$gimli..endianity..LittleEndian$GT$$GT$$GT$17h1caee0108d4ec4dfE+0x8a>
    8a15:	49 69 f5 18 02 00 00 	imul   $0x218,%r13,%rsi
    8a1c:	ba 08 00 00 00       	mov    $0x8,%edx
    8a21:	4c 89 ff             	mov    %r15,%rdi
    8a24:	ff 15 16 e2 04 00    	callq  *0x4e216(%rip)        # 56c40 <_GLOBAL_OFFSET_TABLE_+0x298>
    8a2a:	48 83 c3 28          	add    $0x28,%rbx
    8a2e:	48 89 df             	mov    %rbx,%rdi
    8a31:	48 83 c4 08          	add    $0x8,%rsp
    8a35:	5b                   	pop    %rbx
    8a36:	41 5c                	pop    %r12
    8a38:	41 5d                	pop    %r13
    8a3a:	41 5e                	pop    %r14
    8a3c:	41 5f                	pop    %r15
    8a3e:	5d                   	pop    %rbp
    8a3f:	e9 5c 05 00 00       	jmpq   8fa0 <_ZN4core3ptr158drop_in_place$LT$alloc..boxed..Box$LT$$u5b$addr2line..SupUnit$LT$gimli..read..endian_slice..EndianSlice$LT$gimli..endianity..LittleEndian$GT$$GT$$u5d$$GT$$GT$17h57bb9eb2a7c7a1a7E>
    8a44:	48 89 04 24          	mov    %rax,(%rsp)
    8a48:	48 8b 73 10          	mov    0x10(%rbx),%rsi
    8a4c:	48 85 f6             	test   %rsi,%rsi
    8a4f:	74 13                	je     8a64 <_ZN4core3ptr123drop_in_place$LT$addr2line..Context$LT$gimli..read..endian_slice..EndianSlice$LT$gimli..endianity..LittleEndian$GT$$GT$$GT$17h1caee0108d4ec4dfE+0xc4>
    8a51:	48 8b 7b 08          	mov    0x8(%rbx),%rdi
    8a55:	48 c1 e6 05          	shl    $0x5,%rsi
    8a59:	ba 08 00 00 00       	mov    $0x8,%edx
    8a5e:	ff 15 dc e1 04 00    	callq  *0x4e1dc(%rip)        # 56c40 <_GLOBAL_OFFSET_TABLE_+0x298>
    8a64:	48 8b 7b 18          	mov    0x18(%rbx),%rdi
    8a68:	48 8b 73 20          	mov    0x20(%rbx),%rsi
    8a6c:	e8 5f 04 00 00       	callq  8ed0 <_ZN4core3ptr158drop_in_place$LT$alloc..boxed..Box$LT$$u5b$addr2line..ResUnit$LT$gimli..read..endian_slice..EndianSlice$LT$gimli..endianity..LittleEndian$GT$$GT$$u5d$$GT$$GT$17hfd66ed3565b84cd1E>
    8a71:	eb 44                	jmp    8ab7 <_ZN4core3ptr123drop_in_place$LT$addr2line..Context$LT$gimli..read..endian_slice..EndianSlice$LT$gimli..endianity..LittleEndian$GT$$GT$$GT$17h1caee0108d4ec4dfE+0x117>
    8a73:	48 89 04 24          	mov    %rax,(%rsp)
    8a77:	48 f7 dd             	neg    %rbp
    8a7a:	66 0f 1f 44 00 00    	nopw   0x0(%rax,%rax,1)
    8a80:	48 ff c5             	inc    %rbp
    8a83:	49 39 ed             	cmp    %rbp,%r13
    8a86:	74 15                	je     8a9d <_ZN4core3ptr123drop_in_place$LT$addr2line..Context$LT$gimli..read..endian_slice..EndianSlice$LT$gimli..endianity..LittleEndian$GT$$GT$$GT$17h1caee0108d4ec4dfE+0xfd>
    8a88:	4d 8d b4 24 18 02 00 	lea    0x218(%r12),%r14
    8a8f:	00 
    8a90:	4c 89 e7             	mov    %r12,%rdi
    8a93:	e8 48 00 00 00       	callq  8ae0 <_ZN4core3ptr123drop_in_place$LT$addr2line..ResUnit$LT$gimli..read..endian_slice..EndianSlice$LT$gimli..endianity..LittleEndian$GT$$GT$$GT$17h63f715e788973de2E>
    8a98:	4d 89 f4             	mov    %r14,%r12
    8a9b:	eb e3                	jmp    8a80 <_ZN4core3ptr123drop_in_place$LT$addr2line..Context$LT$gimli..read..endian_slice..EndianSlice$LT$gimli..endianity..LittleEndian$GT$$GT$$GT$17h1caee0108d4ec4dfE+0xe0>
    8a9d:	4d 85 ed             	test   %r13,%r13
    8aa0:	74 15                	je     8ab7 <_ZN4core3ptr123drop_in_place$LT$addr2line..Context$LT$gimli..read..endian_slice..EndianSlice$LT$gimli..endianity..LittleEndian$GT$$GT$$GT$17h1caee0108d4ec4dfE+0x117>
    8aa2:	49 69 f5 18 02 00 00 	imul   $0x218,%r13,%rsi
    8aa9:	ba 08 00 00 00       	mov    $0x8,%edx
    8aae:	4c 89 ff             	mov    %r15,%rdi
    8ab1:	ff 15 89 e1 04 00    	callq  *0x4e189(%rip)        # 56c40 <_GLOBAL_OFFSET_TABLE_+0x298>
    8ab7:	48 83 c3 28          	add    $0x28,%rbx
    8abb:	48 89 df             	mov    %rbx,%rdi
    8abe:	e8 dd 04 00 00       	callq  8fa0 <_ZN4core3ptr158drop_in_place$LT$alloc..boxed..Box$LT$$u5b$addr2line..SupUnit$LT$gimli..read..endian_slice..EndianSlice$LT$gimli..endianity..LittleEndian$GT$$GT$$u5d$$GT$$GT$17h57bb9eb2a7c7a1a7E>
    8ac3:	48 8b 3c 24          	mov    (%rsp),%rdi
    8ac7:	e8 b4 c5 ff ff       	callq  5080 <_Unwind_Resume@plt>
    8acc:	ff 15 b6 e3 04 00    	callq  *0x4e3b6(%rip)        # 56e88 <_GLOBAL_OFFSET_TABLE_+0x4e0>
    8ad2:	ff 15 b0 e3 04 00    	callq  *0x4e3b0(%rip)        # 56e88 <_GLOBAL_OFFSET_TABLE_+0x4e0>
    8ad8:	0f 1f 84 00 00 00 00 	nopl   0x0(%rax,%rax,1)
    8adf:	00 

0000000000008ae0 <_ZN4core3ptr123drop_in_place$LT$addr2line..ResUnit$LT$gimli..read..endian_slice..EndianSlice$LT$gimli..endianity..LittleEndian$GT$$GT$$GT$17h63f715e788973de2E>:
    8ae0:	41 56                	push   %r14
    8ae2:	53                   	push   %rbx
    8ae3:	50                   	push   %rax
    8ae4:	48 89 fb             	mov    %rdi,%rbx
    8ae7:	48 8b 87 58 01 00 00 	mov    0x158(%rdi),%rax
    8aee:	f0 48 ff 08          	lock decq (%rax)
    8af2:	75 0c                	jne    8b00 <_ZN4core3ptr123drop_in_place$LT$addr2line..ResUnit$LT$gimli..read..endian_slice..EndianSlice$LT$gimli..endianity..LittleEndian$GT$$GT$$GT$17h63f715e788973de2E+0x20>
    8af4:	48 8d bb 58 01 00 00 	lea    0x158(%rbx),%rdi
    8afb:	e8 40 37 00 00       	callq  c240 <_ZN5alloc4sync16Arc$LT$T$C$A$GT$9drop_slow17h021b2dbfd339f60aE>
    8b00:	48 8d 7b 60          	lea    0x60(%rbx),%rdi
    8b04:	e8 17 06 00 00       	callq  9120 <_ZN4core3ptr181drop_in_place$LT$core..option..Option$LT$gimli..read..line..IncompleteLineProgram$LT$gimli..read..endian_slice..EndianSlice$LT$gimli..endianity..LittleEndian$GT$$C$usize$GT$$GT$$GT$17hd5986bddbc8c7549E>
    8b09:	48 83 bb b0 01 00 00 	cmpq   $0x0,0x1b0(%rbx)
    8b10:	00 
    8b11:	74 0c                	je     8b1f <_ZN4core3ptr123drop_in_place$LT$addr2line..ResUnit$LT$gimli..read..endian_slice..EndianSlice$LT$gimli..endianity..LittleEndian$GT$$GT$$GT$17h63f715e788973de2E+0x3f>
    8b13:	48 8d bb b8 01 00 00 	lea    0x1b8(%rbx),%rdi
    8b1a:	e8 11 0e 00 00       	callq  9930 <_ZN4core3ptr86drop_in_place$LT$core..result..Result$LT$addr2line..Lines$C$gimli..read..Error$GT$$GT$17h9b18f33189f073a6E>
    8b1f:	48 83 bb d8 01 00 00 	cmpq   $0x0,0x1d8(%rbx)
    8b26:	00 
    8b27:	74 0c                	je     8b35 <_ZN4core3ptr123drop_in_place$LT$addr2line..ResUnit$LT$gimli..read..endian_slice..EndianSlice$LT$gimli..endianity..LittleEndian$GT$$GT$$GT$17h63f715e788973de2E+0x55>
    8b29:	48 8d bb e0 01 00 00 	lea    0x1e0(%rbx),%rdi
    8b30:	e8 7b 06 00 00       	callq  91b0 <_ZN4core3ptr184drop_in_place$LT$core..result..Result$LT$addr2line..function..Functions$LT$gimli..read..endian_slice..EndianSlice$LT$gimli..endianity..LittleEndian$GT$$GT$$C$gimli..read..Error$GT$$GT$17ha292d0cc49b8ed7eE>
    8b35:	80 bb 00 02 00 00 4c 	cmpb   $0x4c,0x200(%rbx)
    8b3c:	75 08                	jne    8b46 <_ZN4core3ptr123drop_in_place$LT$addr2line..ResUnit$LT$gimli..read..endian_slice..EndianSlice$LT$gimli..endianity..LittleEndian$GT$$GT$$GT$17h63f715e788973de2E+0x66>
    8b3e:	48 83 c4 08          	add    $0x8,%rsp
    8b42:	5b                   	pop    %rbx
    8b43:	41 5e                	pop    %r14
    8b45:	c3                   	retq   
    8b46:	48 81 c3 00 02 00 00 	add    $0x200,%rbx
    8b4d:	48 89 df             	mov    %rbx,%rdi
    8b50:	48 83 c4 08          	add    $0x8,%rsp
    8b54:	5b                   	pop    %rbx
    8b55:	41 5e                	pop    %r14
    8b57:	e9 e4 07 00 00       	jmpq   9340 <_ZN4core3ptr383drop_in_place$LT$core..result..Result$LT$core..option..Option$LT$alloc..boxed..Box$LT$$LP$alloc..sync..Arc$LT$gimli..read..dwarf..Dwarf$LT$gimli..read..endian_slice..EndianSlice$LT$gimli..endianity..LittleEndian$GT$$GT$$GT$$C$gimli..read..dwarf..Unit$LT$gimli..read..endian_slice..EndianSlice$LT$gimli..endianity..LittleEndian$GT$$C$usize$GT$$RP$$GT$$GT$$C$gimli..read..Error$GT$$GT$17hdeb045559fd25af5E>
    8b5c:	49 89 c6             	mov    %rax,%r14
    8b5f:	48 8d 7b 60          	lea    0x60(%rbx),%rdi
    8b63:	e8 b8 05 00 00       	callq  9120 <_ZN4core3ptr181drop_in_place$LT$core..option..Option$LT$gimli..read..line..IncompleteLineProgram$LT$gimli..read..endian_slice..EndianSlice$LT$gimli..endianity..LittleEndian$GT$$C$usize$GT$$GT$$GT$17hd5986bddbc8c7549E>
    8b68:	48 83 bb b0 01 00 00 	cmpq   $0x0,0x1b0(%rbx)
    8b6f:	00 
    8b70:	75 15                	jne    8b87 <_ZN4core3ptr123drop_in_place$LT$addr2line..ResUnit$LT$gimli..read..endian_slice..EndianSlice$LT$gimli..endianity..LittleEndian$GT$$GT$$GT$17h63f715e788973de2E+0xa7>
    8b72:	48 83 bb d8 01 00 00 	cmpq   $0x0,0x1d8(%rbx)
    8b79:	00 
    8b7a:	75 21                	jne    8b9d <_ZN4core3ptr123drop_in_place$LT$addr2line..ResUnit$LT$gimli..read..endian_slice..EndianSlice$LT$gimli..endianity..LittleEndian$GT$$GT$$GT$17h63f715e788973de2E+0xbd>
    8b7c:	80 bb 00 02 00 00 4c 	cmpb   $0x4c,0x200(%rbx)
    8b83:	75 2d                	jne    8bb2 <_ZN4core3ptr123drop_in_place$LT$addr2line..ResUnit$LT$gimli..read..endian_slice..EndianSlice$LT$gimli..endianity..LittleEndian$GT$$GT$$GT$17h63f715e788973de2E+0xd2>
    8b85:	eb 3a                	jmp    8bc1 <_ZN4core3ptr123drop_in_place$LT$addr2line..ResUnit$LT$gimli..read..endian_slice..EndianSlice$LT$gimli..endianity..LittleEndian$GT$$GT$$GT$17h63f715e788973de2E+0xe1>
    8b87:	48 8d bb b8 01 00 00 	lea    0x1b8(%rbx),%rdi
    8b8e:	e8 9d 0d 00 00       	callq  9930 <_ZN4core3ptr86drop_in_place$LT$core..result..Result$LT$addr2line..Lines$C$gimli..read..Error$GT$$GT$17h9b18f33189f073a6E>
    8b93:	48 83 bb d8 01 00 00 	cmpq   $0x0,0x1d8(%rbx)
    8b9a:	00 
    8b9b:	74 df                	je     8b7c <_ZN4core3ptr123drop_in_place$LT$addr2line..ResUnit$LT$gimli..read..endian_slice..EndianSlice$LT$gimli..endianity..LittleEndian$GT$$GT$$GT$17h63f715e788973de2E+0x9c>
    8b9d:	48 8d bb e0 01 00 00 	lea    0x1e0(%rbx),%rdi
    8ba4:	e8 07 06 00 00       	callq  91b0 <_ZN4core3ptr184drop_in_place$LT$core..result..Result$LT$addr2line..function..Functions$LT$gimli..read..endian_slice..EndianSlice$LT$gimli..endianity..LittleEndian$GT$$GT$$C$gimli..read..Error$GT$$GT$17ha292d0cc49b8ed7eE>
    8ba9:	80 bb 00 02 00 00 4c 	cmpb   $0x4c,0x200(%rbx)
    8bb0:	74 0f                	je     8bc1 <_ZN4core3ptr123drop_in_place$LT$addr2line..ResUnit$LT$gimli..read..endian_slice..EndianSlice$LT$gimli..endianity..LittleEndian$GT$$GT$$GT$17h63f715e788973de2E+0xe1>
    8bb2:	48 81 c3 00 02 00 00 	add    $0x200,%rbx
    8bb9:	48 89 df             	mov    %rbx,%rdi
    8bbc:	e8 7f 07 00 00       	callq  9340 <_ZN4core3ptr383drop_in_place$LT$core..result..Result$LT$core..option..Option$LT$alloc..boxed..Box$LT$$LP$alloc..sync..Arc$LT$gimli..read..dwarf..Dwarf$LT$gimli..read..endian_slice..EndianSlice$LT$gimli..endianity..LittleEndian$GT$$GT$$GT$$C$gimli..read..dwarf..Unit$LT$gimli..read..endian_slice..EndianSlice$LT$gimli..endianity..LittleEndian$GT$$C$usize$GT$$RP$$GT$$GT$$C$gimli..read..Error$GT$$GT$17hdeb045559fd25af5E>
    8bc1:	4c 89 f7             	mov    %r14,%rdi
    8bc4:	e8 b7 c4 ff ff       	callq  5080 <_Unwind_Resume@plt>
    8bc9:	ff 15 b9 e2 04 00    	callq  *0x4e2b9(%rip)        # 56e88 <_GLOBAL_OFFSET_TABLE_+0x4e0>
    8bcf:	90                   	nop

0000000000008bd0 <_ZN4core3ptr123drop_in_place$LT$addr2line..SupUnit$LT$gimli..read..endian_slice..EndianSlice$LT$gimli..endianity..LittleEndian$GT$$GT$$GT$17h77682ce8d9047839E>:
    8bd0:	41 56                	push   %r14
    8bd2:	53                   	push   %rbx
    8bd3:	50                   	push   %rax
    8bd4:	48 89 fb             	mov    %rdi,%rbx
    8bd7:	48 8b 87 58 01 00 00 	mov    0x158(%rdi),%rax
    8bde:	f0 48 ff 08          	lock decq (%rax)
    8be2:	75 0c                	jne    8bf0 <_ZN4core3ptr123drop_in_place$LT$addr2line..SupUnit$LT$gimli..read..endian_slice..EndianSlice$LT$gimli..endianity..LittleEndian$GT$$GT$$GT$17h77682ce8d9047839E+0x20>
    8be4:	48 8d bb 58 01 00 00 	lea    0x158(%rbx),%rdi
    8beb:	e8 50 36 00 00       	callq  c240 <_ZN5alloc4sync16Arc$LT$T$C$A$GT$9drop_slow17h021b2dbfd339f60aE>
    8bf0:	48 83 c3 60          	add    $0x60,%rbx
    8bf4:	48 89 df             	mov    %rbx,%rdi
    8bf7:	48 83 c4 08          	add    $0x8,%rsp
    8bfb:	5b                   	pop    %rbx
    8bfc:	41 5e                	pop    %r14
    8bfe:	e9 1d 05 00 00       	jmpq   9120 <_ZN4core3ptr181drop_in_place$LT$core..option..Option$LT$gimli..read..line..IncompleteLineProgram$LT$gimli..read..endian_slice..EndianSlice$LT$gimli..endianity..LittleEndian$GT$$C$usize$GT$$GT$$GT$17hd5986bddbc8c7549E>
    8c03:	49 89 c6             	mov    %rax,%r14
    8c06:	48 83 c3 60          	add    $0x60,%rbx
    8c0a:	48 89 df             	mov    %rbx,%rdi
    8c0d:	e8 0e 05 00 00       	callq  9120 <_ZN4core3ptr181drop_in_place$LT$core..option..Option$LT$gimli..read..line..IncompleteLineProgram$LT$gimli..read..endian_slice..EndianSlice$LT$gimli..endianity..LittleEndian$GT$$C$usize$GT$$GT$$GT$17hd5986bddbc8c7549E>
    8c12:	4c 89 f7             	mov    %r14,%rdi
    8c15:	e8 66 c4 ff ff       	callq  5080 <_Unwind_Resume@plt>
    8c1a:	66 0f 1f 44 00 00    	nopw   0x0(%rax,%rax,1)

0000000000008c20 <_ZN4core3ptr130drop_in_place$LT$gimli..read..dwarf..Dwarf$LT$gimli..read..endian_slice..EndianSlice$LT$gimli..endianity..LittleEndian$GT$$GT$$GT$17h36e3e1a7410db308E>:
    8c20:	41 56                	push   %r14
    8c22:	53                   	push   %rbx
    8c23:	50                   	push   %rax
    8c24:	48 89 fb             	mov    %rdi,%rbx
    8c27:	48 8b 87 d0 00 00 00 	mov    0xd0(%rdi),%rax
    8c2e:	48 85 c0             	test   %rax,%rax
    8c31:	74 12                	je     8c45 <_ZN4core3ptr130drop_in_place$LT$gimli..read..dwarf..Dwarf$LT$gimli..read..endian_slice..EndianSlice$LT$gimli..endianity..LittleEndian$GT$$GT$$GT$17h36e3e1a7410db308E+0x25>
    8c33:	f0 48 ff 08          	lock decq (%rax)
    8c37:	75 0c                	jne    8c45 <_ZN4core3ptr130drop_in_place$LT$gimli..read..dwarf..Dwarf$LT$gimli..read..endian_slice..EndianSlice$LT$gimli..endianity..LittleEndian$GT$$GT$$GT$17h36e3e1a7410db308E+0x25>
    8c39:	48 8d bb d0 00 00 00 	lea    0xd0(%rbx),%rdi
    8c40:	e8 4b 37 00 00       	callq  c390 <_ZN5alloc4sync16Arc$LT$T$C$A$GT$9drop_slow17h90b4c74512bbffa8E>
    8c45:	48 8b 83 d8 00 00 00 	mov    0xd8(%rbx),%rax
    8c4c:	48 85 c0             	test   %rax,%rax
